Archive member included because of file (symbol)

C:\Program Files (x86)\GNU Tools ARM Embedded\4.8 2014q1\arm-none-eabi\lib\armv7e-m\libm.a(lib_a-s_atan.o)
                              ..\obj\bw_mpu6050.o (atan)
C:\Program Files (x86)\GNU Tools ARM Embedded\4.8 2014q1\arm-none-eabi\lib\armv7e-m\libm.a(lib_a-s_cos.o)
                              ..\obj\bw_hexapod_cmd.o (cos)
C:\Program Files (x86)\GNU Tools ARM Embedded\4.8 2014q1\arm-none-eabi\lib\armv7e-m\libm.a(lib_a-s_fabs.o)
                              C:\Program Files (x86)\GNU Tools ARM Embedded\4.8 2014q1\arm-none-eabi\lib\armv7e-m\libm.a(lib_a-s_atan.o) (fabs)
C:\Program Files (x86)\GNU Tools ARM Embedded\4.8 2014q1\arm-none-eabi\lib\armv7e-m\libm.a(lib_a-s_fmax.o)
                              ..\obj\bw_tpa_servo.o (fmax)
C:\Program Files (x86)\GNU Tools ARM Embedded\4.8 2014q1\arm-none-eabi\lib\armv7e-m\libm.a(lib_a-s_fpclassify.o)
                              C:\Program Files (x86)\GNU Tools ARM Embedded\4.8 2014q1\arm-none-eabi\lib\armv7e-m\libm.a(lib_a-s_fmax.o) (__fpclassifyd)
C:\Program Files (x86)\GNU Tools ARM Embedded\4.8 2014q1\arm-none-eabi\lib\armv7e-m\libm.a(lib_a-s_sin.o)
                              ..\obj\bw_hexapod_cmd.o (sin)
C:\Program Files (x86)\GNU Tools ARM Embedded\4.8 2014q1\arm-none-eabi\lib\armv7e-m\libm.a(lib_a-w_acos.o)
                              ..\obj\bw_hexapod_cmd.o (acos)
C:\Program Files (x86)\GNU Tools ARM Embedded\4.8 2014q1\arm-none-eabi\lib\armv7e-m\libm.a(lib_a-w_asin.o)
                              ..\obj\bw_dynamixel_hexapod_cmd.o (asin)
C:\Program Files (x86)\GNU Tools ARM Embedded\4.8 2014q1\arm-none-eabi\lib\armv7e-m\libm.a(lib_a-w_atan2.o)
                              ..\obj\bw_mpu6050.o (atan2)
C:\Program Files (x86)\GNU Tools ARM Embedded\4.8 2014q1\arm-none-eabi\lib\armv7e-m\libm.a(lib_a-w_sqrt.o)
                              ..\obj\bw_mpu6050.o (sqrt)
C:\Program Files (x86)\GNU Tools ARM Embedded\4.8 2014q1\arm-none-eabi\lib\armv7e-m\libm.a(lib_a-e_acos.o)
                              C:\Program Files (x86)\GNU Tools ARM Embedded\4.8 2014q1\arm-none-eabi\lib\armv7e-m\libm.a(lib_a-w_acos.o) (__ieee754_acos)
C:\Program Files (x86)\GNU Tools ARM Embedded\4.8 2014q1\arm-none-eabi\lib\armv7e-m\libm.a(lib_a-e_asin.o)
                              C:\Program Files (x86)\GNU Tools ARM Embedded\4.8 2014q1\arm-none-eabi\lib\armv7e-m\libm.a(lib_a-w_asin.o) (__ieee754_asin)
C:\Program Files (x86)\GNU Tools ARM Embedded\4.8 2014q1\arm-none-eabi\lib\armv7e-m\libm.a(lib_a-e_atan2.o)
                              C:\Program Files (x86)\GNU Tools ARM Embedded\4.8 2014q1\arm-none-eabi\lib\armv7e-m\libm.a(lib_a-w_atan2.o) (__ieee754_atan2)
C:\Program Files (x86)\GNU Tools ARM Embedded\4.8 2014q1\arm-none-eabi\lib\armv7e-m\libm.a(lib_a-e_rem_pio2.o)
                              C:\Program Files (x86)\GNU Tools ARM Embedded\4.8 2014q1\arm-none-eabi\lib\armv7e-m\libm.a(lib_a-s_cos.o) (__ieee754_rem_pio2)
C:\Program Files (x86)\GNU Tools ARM Embedded\4.8 2014q1\arm-none-eabi\lib\armv7e-m\libm.a(lib_a-e_sqrt.o)
                              C:\Program Files (x86)\GNU Tools ARM Embedded\4.8 2014q1\arm-none-eabi\lib\armv7e-m\libm.a(lib_a-w_sqrt.o) (__ieee754_sqrt)
C:\Program Files (x86)\GNU Tools ARM Embedded\4.8 2014q1\arm-none-eabi\lib\armv7e-m\libm.a(lib_a-k_cos.o)
                              C:\Program Files (x86)\GNU Tools ARM Embedded\4.8 2014q1\arm-none-eabi\lib\armv7e-m\libm.a(lib_a-s_cos.o) (__kernel_cos)
C:\Program Files (x86)\GNU Tools ARM Embedded\4.8 2014q1\arm-none-eabi\lib\armv7e-m\libm.a(lib_a-k_rem_pio2.o)
                              C:\Program Files (x86)\GNU Tools ARM Embedded\4.8 2014q1\arm-none-eabi\lib\armv7e-m\libm.a(lib_a-e_rem_pio2.o) (__kernel_rem_pio2)
C:\Program Files (x86)\GNU Tools ARM Embedded\4.8 2014q1\arm-none-eabi\lib\armv7e-m\libm.a(lib_a-k_sin.o)
                              C:\Program Files (x86)\GNU Tools ARM Embedded\4.8 2014q1\arm-none-eabi\lib\armv7e-m\libm.a(lib_a-s_cos.o) (__kernel_sin)
C:\Program Files (x86)\GNU Tools ARM Embedded\4.8 2014q1\arm-none-eabi\lib\armv7e-m\libm.a(lib_a-s_floor.o)
                              C:\Program Files (x86)\GNU Tools ARM Embedded\4.8 2014q1\arm-none-eabi\lib\armv7e-m\libm.a(lib_a-k_rem_pio2.o) (floor)
C:\Program Files (x86)\GNU Tools ARM Embedded\4.8 2014q1\arm-none-eabi\lib\armv7e-m\libm.a(lib_a-s_lib_ver.o)
                              C:\Program Files (x86)\GNU Tools ARM Embedded\4.8 2014q1\arm-none-eabi\lib\armv7e-m\libm.a(lib_a-w_acos.o) (__fdlib_version)
C:\Program Files (x86)\GNU Tools ARM Embedded\4.8 2014q1\arm-none-eabi\lib\armv7e-m\libm.a(lib_a-s_matherr.o)
                              C:\Program Files (x86)\GNU Tools ARM Embedded\4.8 2014q1\arm-none-eabi\lib\armv7e-m\libm.a(lib_a-w_acos.o) (matherr)
C:\Program Files (x86)\GNU Tools ARM Embedded\4.8 2014q1\arm-none-eabi\lib\armv7e-m\libm.a(lib_a-s_nan.o)
                              C:\Program Files (x86)\GNU Tools ARM Embedded\4.8 2014q1\arm-none-eabi\lib\armv7e-m\libm.a(lib_a-w_acos.o) (nan)
C:\Program Files (x86)\GNU Tools ARM Embedded\4.8 2014q1\arm-none-eabi\lib\armv7e-m\libm.a(lib_a-s_scalbn.o)
                              C:\Program Files (x86)\GNU Tools ARM Embedded\4.8 2014q1\arm-none-eabi\lib\armv7e-m\libm.a(lib_a-k_rem_pio2.o) (scalbn)
C:\Program Files (x86)\GNU Tools ARM Embedded\4.8 2014q1\arm-none-eabi\lib\armv7e-m\libm.a(lib_a-s_copysign.o)
                              C:\Program Files (x86)\GNU Tools ARM Embedded\4.8 2014q1\arm-none-eabi\lib\armv7e-m\libm.a(lib_a-s_scalbn.o) (copysign)
c:/program files (x86)/gnu tools arm embedded/4.8 2014q1/bin/../lib/gcc/arm-none-eabi/4.8.3/armv7e-m\libgcc.a(_arm_addsubdf3.o)
                              ..\obj\bw_pid_controller.o (__aeabi_dsub)
c:/program files (x86)/gnu tools arm embedded/4.8 2014q1/bin/../lib/gcc/arm-none-eabi/4.8.3/armv7e-m\libgcc.a(_arm_muldivdf3.o)
                              ..\obj\bw_mpu6050.o (__aeabi_dmul)
c:/program files (x86)/gnu tools arm embedded/4.8 2014q1/bin/../lib/gcc/arm-none-eabi/4.8.3/armv7e-m\libgcc.a(_arm_cmpdf2.o)
                              C:\Program Files (x86)\GNU Tools ARM Embedded\4.8 2014q1\arm-none-eabi\lib\armv7e-m\libm.a(lib_a-e_rem_pio2.o) (__aeabi_dcmpeq)
c:/program files (x86)/gnu tools arm embedded/4.8 2014q1/bin/../lib/gcc/arm-none-eabi/4.8.3/armv7e-m\libgcc.a(_arm_fixdfsi.o)
                              ..\obj\bw_mpu6050.o (__aeabi_d2iz)
c:/program files (x86)/gnu tools arm embedded/4.8 2014q1/bin/../lib/gcc/arm-none-eabi/4.8.3/armv7e-m\libgcc.a(_arm_truncdfsf2.o)
                              ..\obj\bw_mpu6050.o (__aeabi_d2f)
c:/program files (x86)/gnu tools arm embedded/4.8 2014q1/bin/../lib/gcc/arm-none-eabi/4.8.3/armv7e-m\libgcc.a(_arm_addsubsf3.o)
                              ..\obj\bw_hexapod_cmd.o (__aeabi_fsub)
c:/program files (x86)/gnu tools arm embedded/4.8 2014q1/bin/../lib/gcc/arm-none-eabi/4.8.3/armv7e-m\libgcc.a(_arm_muldivsf3.o)
                              ..\obj\bw_hexapod_cmd.o (__aeabi_fmul)
c:/program files (x86)/gnu tools arm embedded/4.8 2014q1/bin/../lib/gcc/arm-none-eabi/4.8.3/armv7e-m\libgcc.a(_arm_cmpsf2.o)
                              ..\obj\bw2017_algorithm.o (__aeabi_fcmpeq)
c:/program files (x86)/gnu tools arm embedded/4.8 2014q1/bin/../lib/gcc/arm-none-eabi/4.8.3/armv7e-m\libgcc.a(_arm_fixsfsi.o)
                              ..\obj\bw_articulated_manipulator.o (__aeabi_f2iz)
c:/program files (x86)/gnu tools arm embedded/4.8 2014q1/bin/../lib/gcc/arm-none-eabi/4.8.3/armv7e-m\libgcc.a(_arm_fixunssfsi.o)
                              ..\obj\bw2017_algorithm.o (__aeabi_f2uiz)
C:\Program Files (x86)\GNU Tools ARM Embedded\4.8 2014q1\arm-none-eabi\lib\armv7e-m\libc.a(lib_a-errno.o)
                              C:\Program Files (x86)\GNU Tools ARM Embedded\4.8 2014q1\arm-none-eabi\lib\armv7e-m\libm.a(lib_a-w_acos.o) (__errno)
C:\Program Files (x86)\GNU Tools ARM Embedded\4.8 2014q1\arm-none-eabi\lib\armv7e-m\libc.a(lib_a-impure.o)
                              C:\Program Files (x86)\GNU Tools ARM Embedded\4.8 2014q1\arm-none-eabi\lib\armv7e-m\libc.a(lib_a-errno.o) (_impure_ptr)
C:\Program Files (x86)\GNU Tools ARM Embedded\4.8 2014q1\arm-none-eabi\lib\armv7e-m\libc.a(lib_a-memcpy.o)
                              ..\obj\bw_dynamixel_xl_320.o (memcpy)
C:\Program Files (x86)\GNU Tools ARM Embedded\4.8 2014q1\arm-none-eabi\lib\armv7e-m\libc.a(lib_a-sprintf.o)
                              ..\obj\bw_dynamixel_ax_12a.o (sprintf)
C:\Program Files (x86)\GNU Tools ARM Embedded\4.8 2014q1\arm-none-eabi\lib\armv7e-m\libc.a(lib_a-strlen.o)
                              ..\obj\bw_ping_receiver.o (strlen)
C:\Program Files (x86)\GNU Tools ARM Embedded\4.8 2014q1\arm-none-eabi\lib\armv7e-m\libc.a(lib_a-svfprintf.o)
                              C:\Program Files (x86)\GNU Tools ARM Embedded\4.8 2014q1\arm-none-eabi\lib\armv7e-m\libc.a(lib_a-sprintf.o) (_svfprintf_r)
C:\Program Files (x86)\GNU Tools ARM Embedded\4.8 2014q1\arm-none-eabi\lib\armv7e-m\libc.a(lib_a-dtoa.o)
                              C:\Program Files (x86)\GNU Tools ARM Embedded\4.8 2014q1\arm-none-eabi\lib\armv7e-m\libc.a(lib_a-svfprintf.o) (_dtoa_r)
C:\Program Files (x86)\GNU Tools ARM Embedded\4.8 2014q1\arm-none-eabi\lib\armv7e-m\libc.a(lib_a-locale.o)
                              C:\Program Files (x86)\GNU Tools ARM Embedded\4.8 2014q1\arm-none-eabi\lib\armv7e-m\libc.a(lib_a-svfprintf.o) (_localeconv_r)
C:\Program Files (x86)\GNU Tools ARM Embedded\4.8 2014q1\arm-none-eabi\lib\armv7e-m\libc.a(lib_a-mallocr.o)
                              C:\Program Files (x86)\GNU Tools ARM Embedded\4.8 2014q1\arm-none-eabi\lib\armv7e-m\libc.a(lib_a-svfprintf.o) (_malloc_r)
C:\Program Files (x86)\GNU Tools ARM Embedded\4.8 2014q1\arm-none-eabi\lib\armv7e-m\libc.a(lib_a-memchr-stub.o)
                              C:\Program Files (x86)\GNU Tools ARM Embedded\4.8 2014q1\arm-none-eabi\lib\armv7e-m\libc.a(lib_a-svfprintf.o) (memchr)
C:\Program Files (x86)\GNU Tools ARM Embedded\4.8 2014q1\arm-none-eabi\lib\armv7e-m\libc.a(lib_a-mlock.o)
                              C:\Program Files (x86)\GNU Tools ARM Embedded\4.8 2014q1\arm-none-eabi\lib\armv7e-m\libc.a(lib_a-mallocr.o) (__malloc_lock)
C:\Program Files (x86)\GNU Tools ARM Embedded\4.8 2014q1\arm-none-eabi\lib\armv7e-m\libc.a(lib_a-mprec.o)
                              C:\Program Files (x86)\GNU Tools ARM Embedded\4.8 2014q1\arm-none-eabi\lib\armv7e-m\libc.a(lib_a-dtoa.o) (_Balloc)
C:\Program Files (x86)\GNU Tools ARM Embedded\4.8 2014q1\arm-none-eabi\lib\armv7e-m\libc.a(lib_a-sbrkr.o)
                              C:\Program Files (x86)\GNU Tools ARM Embedded\4.8 2014q1\arm-none-eabi\lib\armv7e-m\libc.a(lib_a-mallocr.o) (_sbrk_r)
C:\Program Files (x86)\GNU Tools ARM Embedded\4.8 2014q1\arm-none-eabi\lib\armv7e-m\libc.a(lib_a-strcmp.o)
                              C:\Program Files (x86)\GNU Tools ARM Embedded\4.8 2014q1\arm-none-eabi\lib\armv7e-m\libc.a(lib_a-locale.o) (strcmp)
C:\Program Files (x86)\GNU Tools ARM Embedded\4.8 2014q1\arm-none-eabi\lib\armv7e-m\libc.a(lib_a-svfiprintf.o)
                              C:\Program Files (x86)\GNU Tools ARM Embedded\4.8 2014q1\arm-none-eabi\lib\armv7e-m\libc.a(lib_a-svfprintf.o) (__ssprint_r)
C:\Program Files (x86)\GNU Tools ARM Embedded\4.8 2014q1\arm-none-eabi\lib\armv7e-m\libc.a(lib_a-callocr.o)
                              C:\Program Files (x86)\GNU Tools ARM Embedded\4.8 2014q1\arm-none-eabi\lib\armv7e-m\libc.a(lib_a-mprec.o) (_calloc_r)
C:\Program Files (x86)\GNU Tools ARM Embedded\4.8 2014q1\arm-none-eabi\lib\armv7e-m\libc.a(lib_a-freer.o)
                              C:\Program Files (x86)\GNU Tools ARM Embedded\4.8 2014q1\arm-none-eabi\lib\armv7e-m\libc.a(lib_a-mallocr.o) (_free_r)
C:\Program Files (x86)\GNU Tools ARM Embedded\4.8 2014q1\arm-none-eabi\lib\armv7e-m\libc.a(lib_a-memmove.o)
                              C:\Program Files (x86)\GNU Tools ARM Embedded\4.8 2014q1\arm-none-eabi\lib\armv7e-m\libc.a(lib_a-svfiprintf.o) (memmove)
C:\Program Files (x86)\GNU Tools ARM Embedded\4.8 2014q1\arm-none-eabi\lib\armv7e-m\libc.a(lib_a-memset.o)
                              C:\Program Files (x86)\GNU Tools ARM Embedded\4.8 2014q1\arm-none-eabi\lib\armv7e-m\libc.a(lib_a-callocr.o) (memset)
C:\Program Files (x86)\GNU Tools ARM Embedded\4.8 2014q1\arm-none-eabi\lib\armv7e-m\libc.a(lib_a-reallocr.o)
                              C:\Program Files (x86)\GNU Tools ARM Embedded\4.8 2014q1\arm-none-eabi\lib\armv7e-m\libc.a(lib_a-svfiprintf.o) (_realloc_r)
C:\Program Files (x86)\GNU Tools ARM Embedded\4.8 2014q1\arm-none-eabi\lib\armv7e-m\libc.a(lib_a-reent.o)
                              C:\Program Files (x86)\GNU Tools ARM Embedded\4.8 2014q1\arm-none-eabi\lib\armv7e-m\libc.a(lib_a-sbrkr.o) (errno)
c:/program files (x86)/gnu tools arm embedded/4.8 2014q1/bin/../lib/gcc/arm-none-eabi/4.8.3/armv7e-m\libgcc.a(_aeabi_uldivmod.o)
                              C:\Program Files (x86)\GNU Tools ARM Embedded\4.8 2014q1\arm-none-eabi\lib\armv7e-m\libc.a(lib_a-svfprintf.o) (__aeabi_uldivmod)
c:/program files (x86)/gnu tools arm embedded/4.8 2014q1/bin/../lib/gcc/arm-none-eabi/4.8.3/armv7e-m\libgcc.a(bpabi.o)
                              c:/program files (x86)/gnu tools arm embedded/4.8 2014q1/bin/../lib/gcc/arm-none-eabi/4.8.3/armv7e-m\libgcc.a(_aeabi_uldivmod.o) (__gnu_uldivmod_helper)
c:/program files (x86)/gnu tools arm embedded/4.8 2014q1/bin/../lib/gcc/arm-none-eabi/4.8.3/armv7e-m\libgcc.a(_dvmd_tls.o)
                              c:/program files (x86)/gnu tools arm embedded/4.8 2014q1/bin/../lib/gcc/arm-none-eabi/4.8.3/armv7e-m\libgcc.a(_aeabi_uldivmod.o) (__aeabi_ldiv0)
c:/program files (x86)/gnu tools arm embedded/4.8 2014q1/bin/../lib/gcc/arm-none-eabi/4.8.3/armv7e-m\libgcc.a(_divdi3.o)
                              c:/program files (x86)/gnu tools arm embedded/4.8 2014q1/bin/../lib/gcc/arm-none-eabi/4.8.3/armv7e-m\libgcc.a(bpabi.o) (__divdi3)
c:/program files (x86)/gnu tools arm embedded/4.8 2014q1/bin/../lib/gcc/arm-none-eabi/4.8.3/armv7e-m\libgcc.a(_udivdi3.o)
                              c:/program files (x86)/gnu tools arm embedded/4.8 2014q1/bin/../lib/gcc/arm-none-eabi/4.8.3/armv7e-m\libgcc.a(bpabi.o) (__udivdi3)

Allocating common symbols
Common symbol       size              file

index_servo3        0x1               ..\obj\bw_global_var.o
HOME                0x4               ..\obj\bw_global_var.o
ROOM4A_FLAG         0x4               ..\obj\bw_global_var.o
GYRO_YL             0x4               ..\obj\bw_mpu6050.o
GYRO_Z_OFFSET       0x4               ..\obj\bw_mpu6050.o
REAR                0x4               ..\obj\bw_global_var.o
I2C2_DATA           0xa               ..\obj\bw_global_var.o
AccelBuffer         0x18              ..\obj\bw_gy_85.o
Defuzzy_follow_kanan
                    0x4               ..\obj\bw_global_var.o
ROOM4_FLAG          0x4               ..\obj\bw_global_var.o
GYRO_Z              0x4               ..\obj\bw_mpu6050.o
R4A_KIRI_H          0x4               ..\obj\bw_global_var.o
ACC_XH              0x4               ..\obj\bw_mpu6050.o
degree_1            0x4               ..\obj\bw_dynamixel_hexapod_cmd.o
leg                 0x4               ..\obj\bw_global_var.o
R4B_THRESHOLD_MIDDLE
                    0x4               ..\obj\bw_global_var.o
GYRO_XH100          0x4               ..\obj\bw_mpu6050.o
b                   0x1               ..\obj\bw_global_var.o
R1BC_L              0x4               ..\obj\bw_global_var.o
lcd                 0x10              ..\obj\bw_articulated_manipulator.o
DATA                0x4               ..\obj\bw_global_var.o
RWS_Byte            0x4               ..\obj\bw_articulated_manipulator.o
Accel_Angle_X       0x4               ..\obj\bw_mpu6050.o
GPIO_I2C            0x8               ..\obj\bw_articulated_manipulator.o
START_MIDDLE        0x4               ..\obj\bw_global_var.o
TIM_TimeBaseStructure
                    0xc               ..\obj\bw_articulated_manipulator.o
DynamixelPos        0x48              ..\obj\bw_articulated_manipulator.o
ROLL                0x4               ..\obj\bw_mpu6050.o
PID_DFL_R_OLD       0x58              ..\obj\bw_articulated_manipulator.o
Load_Long_Byte      0x4               ..\obj\bw_articulated_manipulator.o
ROOM4B_EXIT_FLAG    0x4               ..\obj\bw_global_var.o
Position_Low_Byte   0x1               ..\obj\bw_articulated_manipulator.o
GYRO_XL             0x4               ..\obj\bw_mpu6050.o
Checksum            0x1               ..\obj\bw_articulated_manipulator.o
Accel_Z             0x4               ..\obj\bw_gy_85.o
displaycontrol      0x1               ..\obj\bw_i2c_lcd.o
tetha_3             0x4               ..\obj\bw_dynamixel_hexapod_cmd.o
errno               0x4               C:\Program Files (x86)\GNU Tools ARM Embedded\4.8 2014q1\arm-none-eabi\lib\armv7e-m\libc.a(lib_a-reent.o)
BW_CMPS11           0x40              ..\obj\bw_articulated_manipulator.o
dummy_correct       0x48              ..\obj\bw_global_var.o
selisih_kanan       0x4               ..\obj\bw_global_var.o
YAW_IMU             0x4               ..\obj\bw_global_var.o
Gyro_Mult           0x4               ..\obj\bw_global_var.o
ARM_CCR2_Val        0x4               ..\obj\bw_global_var.o
FOLLOW_FLAG         0x4               ..\obj\bw_global_var.o
c4                  0x4               ..\obj\bw_global_var.o
START_MID_L         0x4               ..\obj\bw_global_var.o
AccelOffset_Y       0x4               ..\obj\bw_gy_85.o
EXIT_FLAG           0x4               ..\obj\bw_global_var.o
Speed_Low_Byte      0x1               ..\obj\bw_articulated_manipulator.o
c2                  0x4               ..\obj\bw_global_var.o
INFRARED            0x24              ..\obj\bw_global_var.o
ROLL_IMU            0x4               ..\obj\bw_global_var.o
tetha_2             0x4               ..\obj\bw_dynamixel_hexapod_cmd.o
Defuzzy_follow_kiri
                    0x4               ..\obj\bw_global_var.o
final_angel         0x8               ..\obj\bw_global_var.o
jumlahData          0x4               ..\obj\bw_articulated_manipulator.o
JointAngle          0xc               ..\obj\bw_articulated_manipulator.o
MIDDLE              0x4               ..\obj\bw_global_var.o
FRONT               0x4               ..\obj\bw_global_var.o
Accel_PitchDeg      0x4               ..\obj\bw_gy_85.o
R4A_KANAN_H         0x4               ..\obj\bw_global_var.o
PING_AL             0x4               ..\obj\bw_global_var.o
SHIFT_ALGORITHM_FLAG
                    0x4               ..\obj\bw_global_var.o
selisih             0x4               ..\obj\bw_global_var.o
FOLLOW_CALC         0x4               ..\obj\bw_global_var.o
data1_lcd           0x10              ..\obj\bw_global_var.o
CCR1_Val            0x4               ..\obj\bw_hexapod_cmd.o
GYRO_ANGLE_Z        0x4               ..\obj\bw_mpu6050.o
PING_RR             0x4               ..\obj\bw_global_var.o
Addr                0x1               ..\obj\bw_i2c_lcd.o
PING_L              0x4               ..\obj\bw_global_var.o
pos_array           0x48              ..\obj\bw_articulated_manipulator.o
phi                 0x18              ..\obj\bw_global_var.o
CMPS11_Angle        0x4               ..\obj\bw_global_var.o
R4B_THRESHOLD_LOWER
                    0x4               ..\obj\bw_global_var.o
BW_MPU6050          0x1c              ..\obj\bw_mpu6050.o
Calibration_Status  0x4               ..\obj\bw_global_var.o
COMPLEMENTARY_PITCH
                    0x4               ..\obj\bw_mpu6050.o
Accel_X             0x4               ..\obj\bw_gy_85.o
degree_3            0x4               ..\obj\bw_dynamixel_hexapod_cmd.o
sudut_awal          0x48              ..\obj\bw_global_var.o
R4A_SERONG_KIRI_L   0x4               ..\obj\bw_global_var.o
PWM_FIRE            0x4               ..\obj\bw_global_var.o
ACC_YH              0x4               ..\obj\bw_mpu6050.o
AccelOffset_X       0x4               ..\obj\bw_gy_85.o
GYRO_ZOUT_OFFSET_1000SUM
                    0x4               ..\obj\bw_mpu6050.o
SP_FIRE_1B          0x4               ..\obj\bw_global_var.o
ACCEL_DEG           0x4               ..\obj\bw_global_var.o
nCount              0x4               ..\obj\bw_global_var.o
R4B_SERONG_KIRI_H   0x4               ..\obj\bw_global_var.o
A_body              0x4               ..\obj\bw_global_var.o
FLAME_SENSOR        0x8               ..\obj\bw_global_var.o
F_R                 0x18              ..\obj\bw_articulated_manipulator.o
R_R                 0x18              ..\obj\bw_articulated_manipulator.o
sudut_tahap1        0x48              ..\obj\bw_global_var.o
bufferDataTx        0x188             ..\obj\bw_articulated_manipulator.o
selisih_CMPS        0x4               ..\obj\bw_global_var.o
ROOM4A_CAT_AVOIDER  0x4               ..\obj\bw_global_var.o
LPF_ACCEL_Z         0x4               ..\obj\bw_mpu6050.o
R4B_SERONG_KANAN_L  0x4               ..\obj\bw_global_var.o
final_speed         0x4               ..\obj\bw_global_var.o
PITCH_IMU           0x4               ..\obj\bw_global_var.o
arm_counter         0x4               ..\obj\bw_articulated_manipulator.o
FLT_GYRO_Y          0x4               ..\obj\bw_mpu6050.o
IMU_Stat            0x64              ..\obj\bw_mpu6050.o
Accel_Angle_Z       0x4               ..\obj\bw_mpu6050.o
R4AB_THRESHOLD_MIDDLE
                    0x4               ..\obj\bw_global_var.o
COLOUR_STAT         0x4               ..\obj\bw_global_var.o
I2C1_DATA           0xa               ..\obj\bw_global_var.o
Lsem                0x4               ..\obj\bw_global_var.o
displayfunction     0x1               ..\obj\bw_i2c_lcd.o
z_A                 0x48              ..\obj\bw_global_var.o
GYRO_COUNTER        0x4               ..\obj\bw_mpu6050.o
TRACER_FLAG         0x4               ..\obj\bw_global_var.o
ERROR_DATA          0x14              ..\obj\bw_global_var.o
ADC_InitStructure   0x18              ..\obj\bw_articulated_manipulator.o
PID_FLAME           0x58              ..\obj\bw_articulated_manipulator.o
VALUE               0x4               ..\obj\bw_global_var.o
FLAME_SIDE          0x4               ..\obj\bw_global_var.o
SHARP_BR_BUFFER     0x4               ..\obj\bw_global_var.o
suhu_pixel          0x8               ..\obj\bw_global_var.o
FOLLOW_BREAK        0x4               ..\obj\bw_global_var.o
Load_High_Byte      0x1               ..\obj\bw_articulated_manipulator.o
move                0x48              ..\obj\bw_articulated_manipulator.o
GYRO_ANGLE_X        0x4               ..\obj\bw_mpu6050.o
R4A_TENGAH_L        0x4               ..\obj\bw_global_var.o
COMPLEMENTARY_YAW   0x4               ..\obj\bw_mpu6050.o
I2C_InitStructure   0x10              ..\obj\bw_articulated_manipulator.o
ACC_XL              0x4               ..\obj\bw_mpu6050.o
tampil_adc          0x10              ..\obj\bw_global_var.o
epsilon             0x18              ..\obj\bw_global_var.o
R4B_THRESHOLD_UPPER
                    0x4               ..\obj\bw_global_var.o
PID_F_L             0x58              ..\obj\bw_articulated_manipulator.o
pixel               0xa               ..\obj\bw_global_var.o
Incoming_Byte       0x1               ..\obj\bw_articulated_manipulator.o
Moving_Byte         0x4               ..\obj\bw_articulated_manipulator.o
Error_Byte          0x4               ..\obj\bw_articulated_manipulator.o
gerak               0x48              ..\obj\bw_articulated_manipulator.o
R4AB_THRESHOLD_UPPER
                    0x4               ..\obj\bw_global_var.o
Count               0x4               ..\obj\bw_global_var.o
PING_AR             0x4               ..\obj\bw_global_var.o
ROOM4B_FLAG         0x4               ..\obj\bw_global_var.o
c1                  0x4               ..\obj\bw_global_var.o
TRACER_IN_BUMPER    0x4               ..\obj\bw_global_var.o
R4B_SERONG_KANAN_H  0x4               ..\obj\bw_global_var.o
I2C3_DATA           0xa               ..\obj\bw_global_var.o
ARM_CCR3_Val        0x4               ..\obj\bw_global_var.o
R4A_KANAN_L         0x4               ..\obj\bw_global_var.o
GYRO_X              0x4               ..\obj\bw_mpu6050.o
PID_FLAME_OLD       0x58              ..\obj\bw_articulated_manipulator.o
R4A_KIRI_L          0x4               ..\obj\bw_global_var.o
Speed_High_Byte     0x1               ..\obj\bw_articulated_manipulator.o
c                   0x1               ..\obj\bw_global_var.o
v                   0x1               ..\obj\bw_global_var.o
leg_next            0x18              ..\obj\bw_global_var.o
M_TRACER            0x4               ..\obj\bw_global_var.o
R4A_SERONG_KIRI_H   0x4               ..\obj\bw_global_var.o
Accel_Angle_Y       0x4               ..\obj\bw_mpu6050.o
ACC_YL              0x4               ..\obj\bw_mpu6050.o
Direction_Pin       0x1               ..\obj\bw_articulated_manipulator.o
Position_High_Byte  0x1               ..\obj\bw_articulated_manipulator.o
Accel_RollRad       0x4               ..\obj\bw_gy_85.o
R1BC_H              0x4               ..\obj\bw_global_var.o
backlight           0x1               ..\obj\bw_i2c_lcd.o
TIM_OCInitStructure
                    0x14              ..\obj\bw_articulated_manipulator.o
GYRO_ANGLE_Y        0x4               ..\obj\bw_mpu6050.o
SHARP_BL_BUFFER     0x4               ..\obj\bw_global_var.o
sudut_target        0x48              ..\obj\bw_global_var.o
rule                0xc               ..\obj\bw_global_var.o
A_leg               0x18              ..\obj\bw_global_var.o
numlines            0x1               ..\obj\bw_i2c_lcd.o
M_sum_green         0x4               ..\obj\bw_global_var.o
LPF_ACCEL_X         0x4               ..\obj\bw_mpu6050.o
Acce_Mult           0x4               ..\obj\bw_global_var.o
pembagi             0x4               ..\obj\bw_global_var.o
F_TRACER            0x4               ..\obj\bw_global_var.o
index_servo2        0x1               ..\obj\bw_global_var.o
PITCH               0x4               ..\obj\bw_mpu6050.o
F_L                 0x18              ..\obj\bw_articulated_manipulator.o
Speed_Long_Byte     0x4               ..\obj\bw_articulated_manipulator.o
data2_lcd           0x10              ..\obj\bw_global_var.o
GYRO_ZL100          0x4               ..\obj\bw_mpu6050.o
R4AB_THRESHOLD_LOWER
                    0x4               ..\obj\bw_global_var.o
PID_DFL_R           0x58              ..\obj\bw_articulated_manipulator.o
RATE_GYRO_X         0x4               ..\obj\bw_mpu6050.o
GYRO_ZL             0x4               ..\obj\bw_mpu6050.o
Accel_RollDeg       0x4               ..\obj\bw_gy_85.o
y                   0x1               ..\obj\bw_global_var.o
Position_Long_Byte  0x4               ..\obj\bw_articulated_manipulator.o
command_code        0x5               ..\obj\bw_global_var.o
displaymode         0x1               ..\obj\bw_i2c_lcd.o
Voltage_Byte        0x4               ..\obj\bw_articulated_manipulator.o
PID_F_R             0x58              ..\obj\bw_articulated_manipulator.o
d                   0x1               ..\obj\bw_global_var.o
SP_FIRE_1C          0x4               ..\obj\bw_global_var.o
PrescalerValue      0x4               ..\obj\bw_global_var.o
ARM_CCR1_Val        0x4               ..\obj\bw_global_var.o
outServo            0x48              ..\obj\bw_articulated_manipulator.o
GYRO_XH             0x4               ..\obj\bw_mpu6050.o
GPIO_InitStructure  0x8               ..\obj\bw_articulated_manipulator.o
R4B_TENGAH_L        0x4               ..\obj\bw_global_var.o
tetha_1             0x4               ..\obj\bw_dynamixel_hexapod_cmd.o
USART_InitStructure
                    0x10              ..\obj\bw_articulated_manipulator.o
PING_R              0x4               ..\obj\bw_global_var.o
UV_state            0x4               ..\obj\bw_global_var.o
GYRO_DEG            0x4               ..\obj\bw_global_var.o
Time_Counter        0x1               ..\obj\bw_articulated_manipulator.o
SP_FIRE_R3          0x4               ..\obj\bw_global_var.o
ROOM1A_SP_EXIT_FLAG
                    0x4               ..\obj\bw_global_var.o
temp_var            0x4               ..\obj\bw_global_var.o
sudut_tahap2        0x48              ..\obj\bw_global_var.o
GYRO_YH100          0x4               ..\obj\bw_mpu6050.o
ACC_ZH              0x4               ..\obj\bw_mpu6050.o
rot_switch_mode     0x2               ..\obj\bw_global_var.o
GYRO_ZH             0x4               ..\obj\bw_mpu6050.o
P_body              0x4               ..\obj\bw_global_var.o
Accel_PitchRad      0x4               ..\obj\bw_gy_85.o
F_sum_green         0x4               ..\obj\bw_global_var.o
GYRO_Y_OFFSET       0x4               ..\obj\bw_mpu6050.o
PING_RL             0x4               ..\obj\bw_global_var.o
beta                0x18              ..\obj\bw_global_var.o
buf                 0x10              ..\obj\bw_global_var.o
FLT_GYRO_Z          0x4               ..\obj\bw_mpu6050.o
RATE_GYRO_Y         0x4               ..\obj\bw_mpu6050.o
R4B_TENGAH_H        0x4               ..\obj\bw_global_var.o
y_A                 0x48              ..\obj\bw_global_var.o
c3                  0x4               ..\obj\bw_global_var.o
jarak               0x14              ..\obj\bw_global_var.o
PING_F              0x4               ..\obj\bw_global_var.o
Accel_Y             0x4               ..\obj\bw_gy_85.o
COMPLEMENTARY_ROLL  0x4               ..\obj\bw_mpu6050.o
GYRO_ZH100          0x4               ..\obj\bw_mpu6050.o
R4A_SERONG_KANAN_L  0x4               ..\obj\bw_global_var.o
LPF_ACCEL_Y         0x4               ..\obj\bw_mpu6050.o
CCR2_Val            0x4               ..\obj\bw_hexapod_cmd.o
PID_DFL_L_OLD       0x58              ..\obj\bw_articulated_manipulator.o
GYRO_YOUT_OFFSET_1000SUM
                    0x4               ..\obj\bw_mpu6050.o
speed_cnt           0x4               ..\obj\bw_global_var.o
Defuzzy_foward      0x4               ..\obj\bw_global_var.o
Load_Low_Byte       0x1               ..\obj\bw_articulated_manipulator.o
SHARP_FL_BUFFER     0x4               ..\obj\bw_global_var.o
tcs3200             0x1               ..\obj\bw_global_var.o
M_L                 0x18              ..\obj\bw_articulated_manipulator.o
R4A_THRESHOLD_LOWER
                    0x4               ..\obj\bw_global_var.o
AccelOffset_Z       0x4               ..\obj\bw_gy_85.o
epsilon_body        0x4               ..\obj\bw_global_var.o
REVERSE_FLAG        0x4               ..\obj\bw_global_var.o
SHARP               0x10              ..\obj\bw_global_var.o
a                   0x1               ..\obj\bw_global_var.o
GYRO_X_OFFSET       0x4               ..\obj\bw_mpu6050.o
PING_RE             0x4               ..\obj\bw_global_var.o
NVIC_InitStructure  0x4               ..\obj\bw_articulated_manipulator.o
P_leg               0x18              ..\obj\bw_global_var.o
GYRO_YH             0x4               ..\obj\bw_mpu6050.o
GYRO_Y              0x4               ..\obj\bw_mpu6050.o
PID_F_R_OLD         0x58              ..\obj\bw_articulated_manipulator.o
lambpsi             0x18              ..\obj\bw_global_var.o
GYRO_XOUT_OFFSET_1000SUM
                    0x4               ..\obj\bw_mpu6050.o
regs                0x4               ..\obj\bw_global_var.o
RATE_GYRO_Z         0x4               ..\obj\bw_mpu6050.o
CCR3_Val            0x4               ..\obj\bw_hexapod_cmd.o
GYRO_XL100          0x4               ..\obj\bw_mpu6050.o
R1BC_THRESHOLD_MIDDLE
                    0x4               ..\obj\bw_global_var.o
ADCResult           0x4               ..\obj\bw_global_var.o
R_L                 0x18              ..\obj\bw_articulated_manipulator.o
degree_2            0x4               ..\obj\bw_dynamixel_hexapod_cmd.o
CALC_EN             0x4               ..\obj\bw_articulated_manipulator.o
R4A_THRESHOLD_UPPER
                    0x4               ..\obj\bw_global_var.o
ACC_ZL              0x4               ..\obj\bw_mpu6050.o
speed_array         0x48              ..\obj\bw_articulated_manipulator.o
START_MID_H         0x4               ..\obj\bw_global_var.o
ww                  0x18              ..\obj\bw_global_var.o
ADC_CommonInitStructure
                    0x10              ..\obj\bw_articulated_manipulator.o
R4A_SERONG_KANAN_H  0x4               ..\obj\bw_global_var.o
temp_angle          0xc               ..\obj\bw_articulated_manipulator.o
Temperature_Byte    0x4               ..\obj\bw_articulated_manipulator.o
R4B_SERONG_KIRI_L   0x4               ..\obj\bw_global_var.o
counts              0x4               ..\obj\bw_global_var.o
index_bantu         0x1               ..\obj\bw_global_var.o
GYRO_YL100          0x4               ..\obj\bw_mpu6050.o
PID_DFL_L           0x58              ..\obj\bw_articulated_manipulator.o
R4A_TENGAH_H        0x4               ..\obj\bw_global_var.o
M_R                 0x18              ..\obj\bw_articulated_manipulator.o
FLT_GYRO_X          0x4               ..\obj\bw_mpu6050.o
temp_var2           0x4               ..\obj\bw_global_var.o
PID_F_L_OLD         0x58              ..\obj\bw_articulated_manipulator.o
received_string     0x2710            ..\obj\bw_global_var.o
R4A_THRESHOLD_MIDDLE
                    0x4               ..\obj\bw_global_var.o

Discarded input sections

 .text          0x00000000        0x0 ..\obj\bw_articulated_manipulator.o
 .data          0x00000000        0x0 ..\obj\bw_articulated_manipulator.o
 .bss           0x00000000        0x0 ..\obj\bw_articulated_manipulator.o
 .text.Manipulator_Servo_Init
                0x00000000       0x7c ..\obj\bw_articulated_manipulator.o
 .text.Manipulator_TIM_Init
                0x00000000       0x24 ..\obj\bw_articulated_manipulator.o
 .text.BW_Manipulator_Initialization
                0x00000000       0x10 ..\obj\bw_articulated_manipulator.o
 .text.Move_ARM
                0x00000000       0x24 ..\obj\bw_articulated_manipulator.o
 .text          0x00000000        0x0 ..\obj\bw_global_var.o
 .text          0x00000000        0x0 ..\obj\bw_dynamixel_ax_12a.o
 .data          0x00000000        0x0 ..\obj\bw_dynamixel_ax_12a.o
 .text.Dynamixel_Pin_Config
                0x00000000       0x2c ..\obj\bw_dynamixel_ax_12a.o
 .text.Dynamixel_moveSpeed
                0x00000000       0xbc ..\obj\bw_dynamixel_ax_12a.o
 .text.Lock_EEPROM
                0x00000000       0x78 ..\obj\bw_dynamixel_ax_12a.o
 .text.SetMaxTorque
                0x00000000       0x80 ..\obj\bw_dynamixel_ax_12a.o
 .text.Start_Pose_SYNC
                0x00000000      0x10c ..\obj\bw_dynamixel_ax_12a.o
 .text.Dynamx_LED_Status
                0x00000000       0x78 ..\obj\bw_dynamixel_ax_12a.o
 .text.Dynamixel_Drive_Interrupt_Init
                0x00000000       0x64 ..\obj\bw_dynamixel_ax_12a.o
 .text.MOV_LEG  0x00000000       0x58 ..\obj\bw_dynamixel_ax_12a.o
 .text.Gerak    0x00000000      0xd8c ..\obj\bw_dynamixel_ax_12a.o
 .text.Dynamx_Demo
                0x00000000        0x4 ..\obj\bw_dynamixel_ax_12a.o
 .text          0x00000000        0x0 ..\obj\BW_Phoenix_Code.o
 .data          0x00000000        0x0 ..\obj\BW_Phoenix_Code.o
 .bss           0x00000000        0x0 ..\obj\BW_Phoenix_Code.o
 .debug_line    0x00000000        0x0 ..\obj\BW_Phoenix_Code.o
 .debug_str     0x00000000        0x0 ..\obj\BW_Phoenix_Code.o
 .comment       0x00000000       0x71 ..\obj\BW_Phoenix_Code.o
 .ARM.attributes
                0x00000000       0x33 ..\obj\BW_Phoenix_Code.o
 .text          0x00000000        0x0 ..\obj\bw_usart_comm.o
 .data          0x00000000        0x0 ..\obj\bw_usart_comm.o
 .text.USART6_Init
                0x00000000       0x94 ..\obj\bw_usart_comm.o
 .text.Command_Gait
                0x00000000       0x38 ..\obj\bw_usart_comm.o
 .text.TCS3200_CMD
                0x00000000       0x38 ..\obj\bw_usart_comm.o
 .text.Send_FlameSense
                0x00000000       0x14 ..\obj\bw_usart_comm.o
 .text          0x00000000        0x0 ..\obj\bw_mpu6050.o
 .data          0x00000000        0x0 ..\obj\bw_mpu6050.o
 .bss           0x00000000        0x8 ..\obj\bw_mpu6050.o
 .text.MPU6050_Address_Init
                0x00000000       0x2c ..\obj\bw_mpu6050.o
 .text.MPU_6050_I2C_Init
                0x00000000       0x8c ..\obj\bw_mpu6050.o
 .text.MPU_6050_Init
                0x00000000       0xb0 ..\obj\bw_mpu6050.o
 .text.Read_Gyro
                0x00000000       0x60 ..\obj\bw_mpu6050.o
 .text.Read_Accelerometer
                0x00000000      0x4a8 ..\obj\bw_mpu6050.o
 .text.ComplementaryFilter
                0x00000000       0x88 ..\obj\bw_mpu6050.o
 .text.Gyro_Calibration
                0x00000000      0x144 ..\obj\bw_mpu6050.o
 .text.Read_Gyroscope
                0x00000000      0x1c0 ..\obj\bw_mpu6050.o
 .text.bw_get_distance_x
                0x00000000       0x20 ..\obj\bw_mpu6050.o
 .text.Accel2mms
                0x00000000       0x40 ..\obj\bw_mpu6050.o
 .rodata.str1.4
                0x00000000       0x50 ..\obj\bw_mpu6050.o
 .debug_info    0x00000000     0x1a5e ..\obj\bw_mpu6050.o
 .debug_abbrev  0x00000000      0x2f4 ..\obj\bw_mpu6050.o
 .debug_loc     0x00000000      0x109 ..\obj\bw_mpu6050.o
 .debug_aranges
                0x00000000       0x68 ..\obj\bw_mpu6050.o
 .debug_ranges  0x00000000       0x58 ..\obj\bw_mpu6050.o
 .debug_line    0x00000000      0x6cd ..\obj\bw_mpu6050.o
 .debug_str     0x00000000     0x116f ..\obj\bw_mpu6050.o
 .comment       0x00000000       0x71 ..\obj\bw_mpu6050.o
 .ARM.attributes
                0x00000000       0x33 ..\obj\bw_mpu6050.o
 .debug_frame   0x00000000      0x144 ..\obj\bw_mpu6050.o
 COMMON         0x00000000      0x140 ..\obj\bw_mpu6050.o
 .text          0x00000000        0x0 ..\obj\bw_i2c_lcd.o
 .data          0x00000000        0x2 ..\obj\bw_i2c_lcd.o
 .bss           0x00000000        0x1 ..\obj\bw_i2c_lcd.o
 .text.I2C1_ReadByte_LCD
                0x00000000      0x194 ..\obj\bw_i2c_lcd.o
 .text.PCF8574_LCD_putstr
                0x00000000       0x18 ..\obj\bw_i2c_lcd.o
 .text.LiquidCrystal_PCF8574
                0x00000000       0x14 ..\obj\bw_i2c_lcd.o
 .text.PCF8574_createChar
                0x00000000       0x24 ..\obj\bw_i2c_lcd.o
 .text.PCF8574_LCD_BlinkCursor
                0x00000000       0x1c ..\obj\bw_i2c_lcd.o
 .text.PCF8574_LCD_noBlinkCursor
                0x00000000       0x1c ..\obj\bw_i2c_lcd.o
 .text.PCF8574_LCD_CursorOn
                0x00000000       0x1c ..\obj\bw_i2c_lcd.o
 .text.PCF8574_LCD_DisplayOff
                0x00000000       0x1c ..\obj\bw_i2c_lcd.o
 .text.PCF8574_LCD_Home
                0x00000000       0x14 ..\obj\bw_i2c_lcd.o
 .text          0x00000000        0x0 ..\obj\BW_I2C_EEPROM.o
 .data          0x00000000        0x0 ..\obj\BW_I2C_EEPROM.o
 .bss           0x00000000        0x0 ..\obj\BW_I2C_EEPROM.o
 .text.BW_I2C_EEPROM_Init
                0x00000000       0x8c ..\obj\BW_I2C_EEPROM.o
 .text.BW_ReadMultiByte_I2C
                0x00000000      0x1ec ..\obj\BW_I2C_EEPROM.o
 .text          0x00000000        0x0 ..\obj\stm32f4xx_usart.o
 .data          0x00000000        0x0 ..\obj\stm32f4xx_usart.o
 .bss           0x00000000        0x0 ..\obj\stm32f4xx_usart.o
 .text.USART_StructInit
                0x00000000       0x18 ..\obj\stm32f4xx_usart.o
 .text.USART_ClockInit
                0x00000000       0x24 ..\obj\stm32f4xx_usart.o
 .text.USART_ClockStructInit
                0x00000000        0xc ..\obj\stm32f4xx_usart.o
 .text.USART_SetPrescaler
                0x00000000       0x14 ..\obj\stm32f4xx_usart.o
 .text.USART_OverSampling8Cmd
                0x00000000       0x1c ..\obj\stm32f4xx_usart.o
 .text.USART_OneBitMethodCmd
                0x00000000       0x1c ..\obj\stm32f4xx_usart.o
 .text.USART_ReceiveData
                0x00000000        0x8 ..\obj\stm32f4xx_usart.o
 .text.USART_SetAddress
                0x00000000       0x18 ..\obj\stm32f4xx_usart.o
 .text.USART_ReceiverWakeUpCmd
                0x00000000       0x1c ..\obj\stm32f4xx_usart.o
 .text.USART_WakeUpConfig
                0x00000000       0x18 ..\obj\stm32f4xx_usart.o
 .text.USART_LINBreakDetectLengthConfig
                0x00000000       0x18 ..\obj\stm32f4xx_usart.o
 .text.USART_LINCmd
                0x00000000       0x1c ..\obj\stm32f4xx_usart.o
 .text.USART_SendBreak
                0x00000000        0xc ..\obj\stm32f4xx_usart.o
 .text.USART_HalfDuplexCmd
                0x00000000       0x1c ..\obj\stm32f4xx_usart.o
 .text.USART_SetGuardTime
                0x00000000       0x14 ..\obj\stm32f4xx_usart.o
 .text.USART_SmartCardCmd
                0x00000000       0x1c ..\obj\stm32f4xx_usart.o
 .text.USART_SmartCardNACKCmd
                0x00000000       0x1c ..\obj\stm32f4xx_usart.o
 .text.USART_IrDAConfig
                0x00000000       0x18 ..\obj\stm32f4xx_usart.o
 .text.USART_IrDACmd
                0x00000000       0x1c ..\obj\stm32f4xx_usart.o
 .text.USART_DMACmd
                0x00000000       0x18 ..\obj\stm32f4xx_usart.o
 .text.USART_ClearITPendingBit
                0x00000000       0x10 ..\obj\stm32f4xx_usart.o
 .text          0x00000000        0x0 ..\obj\bw_hexapod_cmd.o
 .data          0x00000000        0x0 ..\obj\bw_hexapod_cmd.o
 .bss           0x00000000        0x0 ..\obj\bw_hexapod_cmd.o
 .text.Servo_TIM_Init
                0x00000000       0x24 ..\obj\bw_hexapod_cmd.o
 .text.Servo_TIM_Init2
                0x00000000       0x24 ..\obj\bw_hexapod_cmd.o
 .text.Servo_Interrupt_Init
                0x00000000        0x4 ..\obj\bw_hexapod_cmd.o
 .text.Servo_Interrupt_Init2
                0x00000000        0x4 ..\obj\bw_hexapod_cmd.o
 .text.Servo_GPIO_Init
                0x00000000       0x74 ..\obj\bw_hexapod_cmd.o
 .text.BW_Servo_Initialization
                0x00000000       0x10 ..\obj\bw_hexapod_cmd.o
 .text.mov_fwd_2cm
                0x00000000      0x468 ..\obj\bw_hexapod_cmd.o
 .text.mov_bwd_5cm
                0x00000000      0x474 ..\obj\bw_hexapod_cmd.o
 .text.mov_rot_right_reverse
                0x00000000      0x638 ..\obj\bw_hexapod_cmd.o
 .text.mov_rot_left_reverse
                0x00000000      0x638 ..\obj\bw_hexapod_cmd.o
 .text.mov_curve_right
                0x00000000      0x4cc ..\obj\bw_hexapod_cmd.o
 .text.mov_curve_right_reverse
                0x00000000      0x4cc ..\obj\bw_hexapod_cmd.o
 .text.mov_curve_left
                0x00000000      0x508 ..\obj\bw_hexapod_cmd.o
 .text.mov_curve_left_reverse
                0x00000000      0x508 ..\obj\bw_hexapod_cmd.o
 .text.mov_askew_right_transition
                0x00000000      0x318 ..\obj\bw_hexapod_cmd.o
 .text.mov_askew_right_transition_reverse
                0x00000000      0x318 ..\obj\bw_hexapod_cmd.o
 .text.mov_askew_right
                0x00000000      0x44c ..\obj\bw_hexapod_cmd.o
 .text.mov_askew_right_reverse
                0x00000000      0x44c ..\obj\bw_hexapod_cmd.o
 .text.mov_askew_left_transition
                0x00000000      0x38c ..\obj\bw_hexapod_cmd.o
 .text.mov_askew_left_transition_reverse
                0x00000000      0x38c ..\obj\bw_hexapod_cmd.o
 .text.mov_askew_left
                0x00000000      0x44c ..\obj\bw_hexapod_cmd.o
 .text.mov_askew_left_reverse
                0x00000000      0x44c ..\obj\bw_hexapod_cmd.o
 .text.mov_fwd_ripple_gait
                0x00000000      0x3fc ..\obj\bw_hexapod_cmd.o
 .text.mov_fwd_ripple_gait_reverse
                0x00000000      0x400 ..\obj\bw_hexapod_cmd.o
 .text.mov_bwd_ripple_gait
                0x00000000      0x65c ..\obj\bw_hexapod_cmd.o
 .text.mov_bwd_ripple_gait_reverse
                0x00000000      0x660 ..\obj\bw_hexapod_cmd.o
 .text.mov_fwd_wave_gait
                0x00000000      0x970 ..\obj\bw_hexapod_cmd.o
 .text.mov_fwd_wave_gait_reverse
                0x00000000      0x970 ..\obj\bw_hexapod_cmd.o
 .text.mov_celebrate
                0x00000000      0x32c ..\obj\bw_hexapod_cmd.o
 .text.mov_toggle_clearance
                0x00000000       0xa0 ..\obj\bw_hexapod_cmd.o
 .text.mov_deflect_right_reverse
                0x00000000      0x260 ..\obj\bw_hexapod_cmd.o
 .text.mov_deflect_left_reverse
                0x00000000      0x260 ..\obj\bw_hexapod_cmd.o
 .text.PID_curve_right
                0x00000000       0x34 ..\obj\bw_hexapod_cmd.o
 .text.PID_curve_right_reverse
                0x00000000       0x34 ..\obj\bw_hexapod_cmd.o
 .text.PID_curve_left
                0x00000000       0x34 ..\obj\bw_hexapod_cmd.o
 .text.PID_curve_left_reverse
                0x00000000       0x34 ..\obj\bw_hexapod_cmd.o
 .text.BW_Calibration
                0x00000000     0x22b4 ..\obj\bw_hexapod_cmd.o
 .text.CMD_ACTUATE
                0x00000000       0x44 ..\obj\bw_hexapod_cmd.o
 .text.INV_KINE_TEST
                0x00000000       0xa0 ..\obj\bw_hexapod_cmd.o
 .text.BW_Celebrate_Ver2
                0x00000000      0x348 ..\obj\bw_hexapod_cmd.o
 .rodata        0x00000000       0x38 ..\obj\bw_hexapod_cmd.o
 COMMON         0x00000000        0xc ..\obj\bw_hexapod_cmd.o
 .text          0x00000000        0x0 ..\obj\bw_rotary_switch.o
 .data          0x00000000        0x0 ..\obj\bw_rotary_switch.o
 .bss           0x00000000        0x0 ..\obj\bw_rotary_switch.o
 .text          0x00000000        0x0 ..\obj\bw_user_interface.o
 .data          0x00000000        0x0 ..\obj\bw_user_interface.o
 .bss           0x00000000        0x0 ..\obj\bw_user_interface.o
 .text.BW_Buzz_New
                0x00000000       0x88 ..\obj\bw_user_interface.o
 .text.LED_Init
                0x00000000       0x30 ..\obj\bw_user_interface.o
 .text.COMVISION_LED_Init
                0x00000000       0x30 ..\obj\bw_user_interface.o
 .text          0x00000000        0x0 ..\obj\BW_Phoenix_Driver_AX12.o
 .data          0x00000000        0x0 ..\obj\BW_Phoenix_Driver_AX12.o
 .bss           0x00000000        0x0 ..\obj\BW_Phoenix_Driver_AX12.o
 .debug_line    0x00000000        0x0 ..\obj\BW_Phoenix_Driver_AX12.o
 .debug_str     0x00000000        0x0 ..\obj\BW_Phoenix_Driver_AX12.o
 .comment       0x00000000       0x71 ..\obj\BW_Phoenix_Driver_AX12.o
 .ARM.attributes
                0x00000000       0x33 ..\obj\BW_Phoenix_Driver_AX12.o
 .text          0x00000000        0x0 ..\obj\startup_stm32f4xx.o
 .data          0x00000000        0x0 ..\obj\startup_stm32f4xx.o
 .bss           0x00000000        0x0 ..\obj\startup_stm32f4xx.o
 .text          0x00000000        0x0 ..\obj\main.o
 .data          0x00000000        0x8 ..\obj\main.o
 .bss           0x00000000        0x0 ..\obj\main.o
 .text.BW_SystemCheck
                0x00000000      0x5d0 ..\obj\main.o
 .text          0x00000000        0x0 ..\obj\stm32f4xx_rcc.o
 .bss           0x00000000        0x0 ..\obj\stm32f4xx_rcc.o
 .text.RCC_DeInit
                0x00000000       0x34 ..\obj\stm32f4xx_rcc.o
 .text.RCC_HSEConfig
                0x00000000       0x10 ..\obj\stm32f4xx_rcc.o
 .text.RCC_AdjustHSICalibrationValue
                0x00000000       0x14 ..\obj\stm32f4xx_rcc.o
 .text.RCC_HSICmd
                0x00000000        0xc ..\obj\stm32f4xx_rcc.o
 .text.RCC_LSEConfig
                0x00000000       0x28 ..\obj\stm32f4xx_rcc.o
 .text.RCC_LSICmd
                0x00000000        0xc ..\obj\stm32f4xx_rcc.o
 .text.RCC_PLLConfig
                0x00000000       0x24 ..\obj\stm32f4xx_rcc.o
 .text.RCC_PLLCmd
                0x00000000        0xc ..\obj\stm32f4xx_rcc.o
 .text.RCC_PLLI2SConfig
                0x00000000       0x14 ..\obj\stm32f4xx_rcc.o
 .text.RCC_PLLI2SCmd
                0x00000000        0xc ..\obj\stm32f4xx_rcc.o
 .text.RCC_ClockSecuritySystemCmd
                0x00000000        0xc ..\obj\stm32f4xx_rcc.o
 .text.RCC_MCO1Config
                0x00000000       0x14 ..\obj\stm32f4xx_rcc.o
 .text.RCC_MCO2Config
                0x00000000       0x14 ..\obj\stm32f4xx_rcc.o
 .text.RCC_SYSCLKConfig
                0x00000000       0x14 ..\obj\stm32f4xx_rcc.o
 .text.RCC_GetSYSCLKSource
                0x00000000       0x10 ..\obj\stm32f4xx_rcc.o
 .text.RCC_HCLKConfig
                0x00000000       0x14 ..\obj\stm32f4xx_rcc.o
 .text.RCC_PCLK1Config
                0x00000000       0x14 ..\obj\stm32f4xx_rcc.o
 .text.RCC_PCLK2Config
                0x00000000       0x14 ..\obj\stm32f4xx_rcc.o
 .text.RCC_RTCCLKConfig
                0x00000000       0x30 ..\obj\stm32f4xx_rcc.o
 .text.RCC_RTCCLKCmd
                0x00000000        0xc ..\obj\stm32f4xx_rcc.o
 .text.RCC_BackupResetCmd
                0x00000000        0xc ..\obj\stm32f4xx_rcc.o
 .text.RCC_I2SCLKConfig
                0x00000000        0xc ..\obj\stm32f4xx_rcc.o
 .text.RCC_AHB2PeriphClockCmd
                0x00000000       0x1c ..\obj\stm32f4xx_rcc.o
 .text.RCC_AHB3PeriphClockCmd
                0x00000000       0x1c ..\obj\stm32f4xx_rcc.o
 .text.RCC_AHB1PeriphResetCmd
                0x00000000       0x1c ..\obj\stm32f4xx_rcc.o
 .text.RCC_AHB2PeriphResetCmd
                0x00000000       0x1c ..\obj\stm32f4xx_rcc.o
 .text.RCC_AHB3PeriphResetCmd
                0x00000000       0x1c ..\obj\stm32f4xx_rcc.o
 .text.RCC_AHB1PeriphClockLPModeCmd
                0x00000000       0x1c ..\obj\stm32f4xx_rcc.o
 .text.RCC_AHB2PeriphClockLPModeCmd
                0x00000000       0x1c ..\obj\stm32f4xx_rcc.o
 .text.RCC_AHB3PeriphClockLPModeCmd
                0x00000000       0x1c ..\obj\stm32f4xx_rcc.o
 .text.RCC_APB1PeriphClockLPModeCmd
                0x00000000       0x1c ..\obj\stm32f4xx_rcc.o
 .text.RCC_APB2PeriphClockLPModeCmd
                0x00000000       0x1c ..\obj\stm32f4xx_rcc.o
 .text.RCC_ITConfig
                0x00000000       0x1c ..\obj\stm32f4xx_rcc.o
 .text.RCC_GetFlagStatus
                0x00000000       0x28 ..\obj\stm32f4xx_rcc.o
 .text.RCC_WaitForHSEStartUp
                0x00000000       0x34 ..\obj\stm32f4xx_rcc.o
 .text.RCC_ClearFlag
                0x00000000       0x10 ..\obj\stm32f4xx_rcc.o
 .text.RCC_GetITStatus
                0x00000000       0x14 ..\obj\stm32f4xx_rcc.o
 .text.RCC_ClearITPendingBit
                0x00000000        0xc ..\obj\stm32f4xx_rcc.o
 .text          0x00000000        0x0 ..\obj\bw_ping_receiver.o
 .data          0x00000000        0x0 ..\obj\bw_ping_receiver.o
 .text.usart_puts
                0x00000000       0x20 ..\obj\bw_ping_receiver.o
 .text          0x00000000        0x0 ..\obj\bw_sound_activation.o
 .data          0x00000000        0x0 ..\obj\bw_sound_activation.o
 .bss           0x00000000        0x0 ..\obj\bw_sound_activation.o
 .text.BW_Sound_Activation
                0x00000000       0x80 ..\obj\bw_sound_activation.o
 .rodata.str1.4
                0x00000000       0x10 ..\obj\bw_sound_activation.o
 .text          0x00000000        0x0 ..\obj\bw_extinguisher.o
 .data          0x00000000        0x0 ..\obj\bw_extinguisher.o
 .bss           0x00000000        0x0 ..\obj\bw_extinguisher.o
 .text.BW_HydroPump
                0x00000000       0x3c ..\obj\bw_extinguisher.o
 .text.BW_HydroPump_2
                0x00000000      0x6a4 ..\obj\bw_extinguisher.o
 .text          0x00000000        0x0 ..\obj\stm32f4xx_adc.o
 .data          0x00000000        0x0 ..\obj\stm32f4xx_adc.o
 .bss           0x00000000        0x0 ..\obj\stm32f4xx_adc.o
 .text.ADC_DeInit
                0x00000000       0x18 ..\obj\stm32f4xx_adc.o
 .text.ADC_StructInit
                0x00000000       0x14 ..\obj\stm32f4xx_adc.o
 .text.ADC_CommonStructInit
                0x00000000        0xc ..\obj\stm32f4xx_adc.o
 .text.ADC_AnalogWatchdogCmd
                0x00000000       0x10 ..\obj\stm32f4xx_adc.o
 .text.ADC_AnalogWatchdogThresholdsConfig
                0x00000000        0x8 ..\obj\stm32f4xx_adc.o
 .text.ADC_AnalogWatchdogSingleChannelConfig
                0x00000000        0xc ..\obj\stm32f4xx_adc.o
 .text.ADC_TempSensorVrefintCmd
                0x00000000       0x20 ..\obj\stm32f4xx_adc.o
 .text.ADC_VBATCmd
                0x00000000       0x20 ..\obj\stm32f4xx_adc.o
 .text.ADC_GetSoftwareStartConvStatus
                0x00000000        0x8 ..\obj\stm32f4xx_adc.o
 .text.ADC_EOCOnEachRegularChannelCmd
                0x00000000       0x18 ..\obj\stm32f4xx_adc.o
 .text.ADC_DiscModeChannelCountConfig
                0x00000000       0x10 ..\obj\stm32f4xx_adc.o
 .text.ADC_DiscModeCmd
                0x00000000       0x18 ..\obj\stm32f4xx_adc.o
 .text.ADC_GetMultiModeConversionValue
                0x00000000        0xc ..\obj\stm32f4xx_adc.o
 .text.ADC_DMACmd
                0x00000000       0x18 ..\obj\stm32f4xx_adc.o
 .text.ADC_DMARequestAfterLastTransferCmd
                0x00000000       0x18 ..\obj\stm32f4xx_adc.o
 .text.ADC_MultiModeDMARequestAfterLastTransferCmd
                0x00000000       0x20 ..\obj\stm32f4xx_adc.o
 .text.ADC_InjectedChannelConfig
                0x00000000       0x60 ..\obj\stm32f4xx_adc.o
 .text.ADC_InjectedSequencerLengthConfig
                0x00000000       0x10 ..\obj\stm32f4xx_adc.o
 .text.ADC_SetInjectedOffset
                0x00000000       0x18 ..\obj\stm32f4xx_adc.o
 .text.ADC_ExternalTrigInjectedConvConfig
                0x00000000        0xc ..\obj\stm32f4xx_adc.o
 .text.ADC_ExternalTrigInjectedConvEdgeConfig
                0x00000000        0xc ..\obj\stm32f4xx_adc.o
 .text.ADC_SoftwareStartInjectedConv
                0x00000000        0xc ..\obj\stm32f4xx_adc.o
 .text.ADC_GetSoftwareStartInjectedConvCmdStatus
                0x00000000        0x8 ..\obj\stm32f4xx_adc.o
 .text.ADC_AutoInjectedConvCmd
                0x00000000       0x18 ..\obj\stm32f4xx_adc.o
 .text.ADC_InjectedDiscModeCmd
                0x00000000       0x18 ..\obj\stm32f4xx_adc.o
 .text.ADC_GetInjectedConversionValue
                0x00000000       0x1c ..\obj\stm32f4xx_adc.o
 .text.ADC_ITConfig
                0x00000000       0x1c ..\obj\stm32f4xx_adc.o
 .text.ADC_GetFlagStatus
                0x00000000        0xc ..\obj\stm32f4xx_adc.o
 .text.ADC_ClearFlag
                0x00000000        0x8 ..\obj\stm32f4xx_adc.o
 .text.ADC_GetITStatus
                0x00000000       0x20 ..\obj\stm32f4xx_adc.o
 .text.ADC_ClearITPendingBit
                0x00000000        0x8 ..\obj\stm32f4xx_adc.o
 .text          0x00000000        0x0 ..\obj\bw_bumper.o
 .data          0x00000000        0x0 ..\obj\bw_bumper.o
 .bss           0x00000000        0x0 ..\obj\bw_bumper.o
 .text.Bumper_Init
                0x00000000       0x50 ..\obj\bw_bumper.o
 .text.Display_Bumper_Stat
                0x00000000       0xac ..\obj\bw_bumper.o
 .text          0x00000000        0x0 ..\obj\bw2017_algorithm.o
 .data          0x00000000       0x28 ..\obj\bw2017_algorithm.o
 .text.BW_Dimension_Check
                0x00000000       0x44 ..\obj\bw2017_algorithm.o
 .text.BW_Home_Detection_Ver2
                0x00000000      0x130 ..\obj\bw2017_algorithm.o
 .text.BW_Home_Detection_Ver3
                0x00000000       0xb8 ..\obj\bw2017_algorithm.o
 .text.BW_Home_Detection_2017
                0x00000000      0x294 ..\obj\bw2017_algorithm.o
 .text.Home_HallwaySC_Detector
                0x00000000       0xd0 ..\obj\bw2017_algorithm.o
 .text.BW_Arbitrary_Start
                0x00000000       0x1c ..\obj\bw2017_algorithm.o
 .text.BW_Non_Arbitrary_Start
                0x00000000       0x1c ..\obj\bw2017_algorithm.o
 .text.Evade_Wall
                0x00000000        0x4 ..\obj\bw2017_algorithm.o
 .text.Evade_Wall_Room
                0x00000000      0x1bc ..\obj\bw2017_algorithm.o
 .text.Bump_Avoider
                0x00000000       0x90 ..\obj\bw2017_algorithm.o
 .text.ReturnTo_Room
                0x00000000       0xf4 ..\obj\bw2017_algorithm.o
 .text.Cat_Avoider_Test
                0x00000000      0x1b8 ..\obj\bw2017_algorithm.o
 .text.Cat_Avoider_Interrupt_Init
                0x00000000       0x68 ..\obj\bw2017_algorithm.o
 .text.FlameSense_PID_Calc
                0x00000000      0x10c ..\obj\bw2017_algorithm.o
 .text.Rot_Right_PID
                0x00000000      0x440 ..\obj\bw2017_algorithm.o
 .text.Rot_Left_PID
                0x00000000      0x444 ..\obj\bw2017_algorithm.o
 .text.BW_FlameSense
                0x00000000       0x48 ..\obj\bw2017_algorithm.o
 .text.CurveRight_FlameSense_New
                0x00000000      0x610 ..\obj\bw2017_algorithm.o
 .text.CurveLeft_FlameSense_New
                0x00000000      0x668 ..\obj\bw2017_algorithm.o
 .text.PID_FollowFlame_Left_New
                0x00000000      0x1dc ..\obj\bw2017_algorithm.o
 .text.FollowFlame_Left_New
                0x00000000       0x70 ..\obj\bw2017_algorithm.o
 .text.PID_FlameTracking_New
                0x00000000      0x160 ..\obj\bw2017_algorithm.o
 .text.RotRight_Angle
                0x00000000       0x50 ..\obj\bw2017_algorithm.o
 .text.RotLeft_Angle
                0x00000000       0x30 ..\obj\bw2017_algorithm.o
 .text.Obstacle_Avoider
                0x00000000       0xc8 ..\obj\bw2017_algorithm.o
 .text.Object_Follow
                0x00000000       0xdc ..\obj\bw2017_algorithm.o
 .text.FlameTracking_New
                0x00000000       0xc0 ..\obj\bw2017_algorithm.o
 .text.BW_FlameExtinguish
                0x00000000      0x5dc ..\obj\bw2017_algorithm.o
 .text.BW_FlameScanning
                0x00000000      0x4a0 ..\obj\bw2017_algorithm.o
 .text.PID_FlameTracking
                0x00000000      0x15c ..\obj\bw2017_algorithm.o
 .text.FlameTracking
                0x00000000       0x24 ..\obj\bw2017_algorithm.o
 .text.CurveRight_FlameSense
                0x00000000      0x600 ..\obj\bw2017_algorithm.o
 .text.CurveLeft_FlameSense
                0x00000000      0x654 ..\obj\bw2017_algorithm.o
 .text.PID_FollowFlame_Left
                0x00000000      0x1dc ..\obj\bw2017_algorithm.o
 .text.FollowFlame_Left
                0x00000000       0x70 ..\obj\bw2017_algorithm.o
 .text.BW_RUNNING_TEST_SET
                0x00000000        0x4 ..\obj\bw2017_algorithm.o
 .text.Tracer_Check
                0x00000000       0x74 ..\obj\bw2017_algorithm.o
 .text.curve_right_counter_reverse
                0x00000000      0x90c ..\obj\bw2017_algorithm.o
 .text.Check_Cat_Avoider
                0x00000000       0x34 ..\obj\bw2017_algorithm.o
 .text.BW_Home_Detection
                0x00000000      0x194 ..\obj\bw2017_algorithm.o
 .text.WallFollow_Tester
                0x00000000      0x278 ..\obj\bw2017_algorithm.o
 .text.curve_left_counter_reverse
                0x00000000      0x920 ..\obj\bw2017_algorithm.o
 .text.PID_follow_right_counter_reverse
                0x00000000      0x21c ..\obj\bw2017_algorithm.o
 .text.follow_right_counter_reverse
                0x00000000       0x44 ..\obj\bw2017_algorithm.o
 .text.PID_follow_left_counter_reverse
                0x00000000      0x2c4 ..\obj\bw2017_algorithm.o
 .text.follow_left_counter_reverse
                0x00000000       0x50 ..\obj\bw2017_algorithm.o
 .text.PID_FollowTracer_Right_Reverse
                0x00000000      0x2e4 ..\obj\bw2017_algorithm.o
 .text.PID_FollowTracer_Left_Reverse
                0x00000000      0x2f0 ..\obj\bw2017_algorithm.o
 .text.PID_FollowCarpet_Right_Reverse
                0x00000000      0x2f0 ..\obj\bw2017_algorithm.o
 .text.FollowCarpet_Right_Reverse
                0x00000000       0xd0 ..\obj\bw2017_algorithm.o
 .text.PID_FollowCarpet_Left_Reverse
                0x00000000      0x2cc ..\obj\bw2017_algorithm.o
 .text.FollowCarpet_Left_Reverse
                0x00000000       0xd0 ..\obj\bw2017_algorithm.o
 .text.FollowTracer_Right_Reverse
                0x00000000       0xc4 ..\obj\bw2017_algorithm.o
 .text.FollowTracer_Left_Reverse
                0x00000000       0xe8 ..\obj\bw2017_algorithm.o
 .text.Stabilize_After_Exit
                0x00000000       0x5c ..\obj\bw2017_algorithm.o
 .text.RoomType_Init
                0x00000000       0xe8 ..\obj\bw2017_algorithm.o
 .text.BW_FlameCheck
                0x00000000      0x4f0 ..\obj\bw2017_algorithm.o
 .text.BW_CandleScan
                0x00000000      0x794 ..\obj\bw2017_algorithm.o
 .text.CandleScan2
                0x00000000       0x80 ..\obj\bw2017_algorithm.o
 .text.FireFight_FrontDetector
                0x00000000       0x18 ..\obj\bw2017_algorithm.o
 .text.FireFight_FlameDetector
                0x00000000       0x2c ..\obj\bw2017_algorithm.o
 .text.FireFight_CandleStickDetector
                0x00000000       0x3c ..\obj\bw2017_algorithm.o
 .text.FireFight_CandleFireDetector
                0x00000000       0x24 ..\obj\bw2017_algorithm.o
 .text.CurveRight_FlameApproach
                0x00000000      0x7a4 ..\obj\bw2017_algorithm.o
 .text.CurveLeft_FlameApproach
                0x00000000      0x77c ..\obj\bw2017_algorithm.o
 .text.PID_FlameApproach
                0x00000000      0x16c ..\obj\bw2017_algorithm.o
 .text.FlameApproach
                0x00000000       0x20 ..\obj\bw2017_algorithm.o
 .text.BW_FireFollow
                0x00000000      0x124 ..\obj\bw2017_algorithm.o
 .text.FollowCandle
                0x00000000       0x5c ..\obj\bw2017_algorithm.o
 .text.BW_FlameDemo
                0x00000000       0xfc ..\obj\bw2017_algorithm.o
 .text.BW_CandleScanExecute
                0x00000000      0x690 ..\obj\bw2017_algorithm.o
 .text.BW_BLDC_Extinguish
                0x00000000      0x3c8 ..\obj\bw2017_algorithm.o
 .text.FlameTracking_Center_FAR
                0x00000000      0x128 ..\obj\bw2017_algorithm.o
 .text.PID_FlameApproach_Ver2
                0x00000000      0x160 ..\obj\bw2017_algorithm.o
 .text.FlameApproach_Ver2
                0x00000000       0x14 ..\obj\bw2017_algorithm.o
 .text.FireFight_FrontDetector_Ver2
                0x00000000       0x18 ..\obj\bw2017_algorithm.o
 .text.FireFight_FlameDetector_Ver2
                0x00000000       0x2c ..\obj\bw2017_algorithm.o
 .text.FireFight_CandleStickDetector_Ver2
                0x00000000       0x3c ..\obj\bw2017_algorithm.o
 .text.FireFight_CandleFireDetector_Ver2
                0x00000000       0x24 ..\obj\bw2017_algorithm.o
 .text.Instant_Trial
                0x00000000      0x4cc ..\obj\bw2017_algorithm.o
 .text.H_Correction_Left
                0x00000000       0x28 ..\obj\bw2017_algorithm.o
 .text.H_Correction_Right
                0x00000000       0x28 ..\obj\bw2017_algorithm.o
 .text.H_Correction_ExitRoom
                0x00000000       0xc0 ..\obj\bw2017_algorithm.o
 .text.Bumper_Action_Left
                0x00000000        0x4 ..\obj\bw2017_algorithm.o
 .text.Bumper_Action_Right
                0x00000000        0x4 ..\obj\bw2017_algorithm.o
 .text.Bumper_Follow
                0x00000000        0x4 ..\obj\bw2017_algorithm.o
 .text.PID_BWFollowCarpet_Right
                0x00000000      0x224 ..\obj\bw2017_algorithm.o
 .text.BWFollowCarpet_Right
                0x00000000       0xf0 ..\obj\bw2017_algorithm.o
 .text.Nav_4B_To_1BC_EXC
                0x00000000      0x198 ..\obj\bw2017_algorithm.o
 .text.PID_BWFollowTracer_Right
                0x00000000      0x330 ..\obj\bw2017_algorithm.o
 .text.BW_FollowTracer_Right
                0x00000000      0x11c ..\obj\bw2017_algorithm.o
 .text.Nav_4A_To_2_NEW
                0x00000000      0x400 ..\obj\bw2017_algorithm.o
 .text.Escape_Home
                0x00000000      0x1dc ..\obj\bw2017_algorithm.o
 .text.BW_FireFighter
                0x00000000       0x44 ..\obj\bw2017_algorithm.o
 .text.Escape_Home_2017
                0x00000000      0x4e4 ..\obj\bw2017_algorithm.o
 .text.RoomDetector_Check
                0x00000000      0x100 ..\obj\bw2017_algorithm.o
 .text.Nav_1C_To_4A_NEW
                0x00000000      0x618 ..\obj\bw2017_algorithm.o
 .text.Nav_Test_Menu
                0x00000000      0xc9c ..\obj\bw2017_algorithm.o
 .text.BW_FlameFollowDemo
                0x00000000      0xbb8 ..\obj\bw2017_algorithm.o
 .text.Demo_TO  0x00000000       0x4c ..\obj\bw2017_algorithm.o
 .text.BW_FireFight
                0x00000000     0x1494 ..\obj\bw2017_algorithm.o
 .text.BW_Room  0x00000000      0x450 ..\obj\bw2017_algorithm.o
 .text.BW_Strategy
                0x00000000      0x3ec ..\obj\bw2017_algorithm.o
 .text.H_2017_Room
                0x00000000     0x12d0 ..\obj\bw2017_algorithm.o
 .text.H_ROOM_1BC
                0x00000000      0x154 ..\obj\bw2017_algorithm.o
 .text.H_ROOM_1BC_NEW2
                0x00000000      0x240 ..\obj\bw2017_algorithm.o
 .text.H_ROOM_1BC_NEW
                0x00000000      0x280 ..\obj\bw2017_algorithm.o
 .text.H_ROOM_1BC_SP
                0x00000000      0x3a4 ..\obj\bw2017_algorithm.o
 .text.H_ROOM_1BC_SP_NEW
                0x00000000      0x2b0 ..\obj\bw2017_algorithm.o
 .text.H_ROOM_2
                0x00000000      0x250 ..\obj\bw2017_algorithm.o
 .text.H_ROOM_2_NEW
                0x00000000      0x420 ..\obj\bw2017_algorithm.o
 .text.H_ROOM_2_NEW_2019
                0x00000000      0x2b0 ..\obj\bw2017_algorithm.o
 .text.H_ROOM_3
                0x00000000      0x344 ..\obj\bw2017_algorithm.o
 .text.H_ROOM_4A
                0x00000000      0x434 ..\obj\bw2017_algorithm.o
 .text.H_ROOM_4B
                0x00000000      0x438 ..\obj\bw2017_algorithm.o
 .text.H_ROOM_4B_NEW
                0x00000000      0x334 ..\obj\bw2017_algorithm.o
 .text.H_ROOM_4B_EXC
                0x00000000      0x81c ..\obj\bw2017_algorithm.o
 .text.BW_FireFight_Standard
                0x00000000     0x16b0 ..\obj\bw2017_algorithm.o
 .text.BW_FireFight_New
                0x00000000     0x1574 ..\obj\bw2017_algorithm.o
 .text.Furniture_Check
                0x00000000      0x38c ..\obj\bw2017_algorithm.o
 .text.PID_BWFollowTracer_Right_Reverse
                0x00000000      0x2d8 ..\obj\bw2017_algorithm.o
 .text.BW_FollowTracer_Right_Reverse
                0x00000000       0xf4 ..\obj\bw2017_algorithm.o
 .text.PID_BWFollowTracer_Left_Reverse
                0x00000000      0x2d8 ..\obj\bw2017_algorithm.o
 .text.BW_FollowTracer_Left_Reverse
                0x00000000      0x11c ..\obj\bw2017_algorithm.o
 .text.PID_BWFollowCarpet_Right_Reverse
                0x00000000      0x254 ..\obj\bw2017_algorithm.o
 .text.BWFollowCarpet_Right_Reverse
                0x00000000       0xd0 ..\obj\bw2017_algorithm.o
 .text.PID_BWFollowCarpet_Left_Reverse
                0x00000000      0x248 ..\obj\bw2017_algorithm.o
 .text.BWFollowCarpet_Left_Reverse
                0x00000000       0xe0 ..\obj\bw2017_algorithm.o
 .text.PID_BW_FollowCounter_Right_Reverse
                0x00000000      0x254 ..\obj\bw2017_algorithm.o
 .text.BW_FollowCounter_Right_Reverse
                0x00000000       0x48 ..\obj\bw2017_algorithm.o
 .text.PID_BW_FollowCounter_Left_Reverse
                0x00000000      0x248 ..\obj\bw2017_algorithm.o
 .text.BW_FollowCounter_Left_Reverse
                0x00000000       0x4c ..\obj\bw2017_algorithm.o
 .text.PID_BWFollowFlame
                0x00000000      0x2e8 ..\obj\bw2017_algorithm.o
 .text.BW_FollowFlame
                0x00000000       0xac ..\obj\bw2017_algorithm.o
 .text.Compass_Correction_ExitRoom
                0x00000000       0x4c ..\obj\bw2017_algorithm.o
 .text          0x00000000        0x0 ..\obj\bw_mpu6050_receiver.o
 .data          0x00000000        0x0 ..\obj\bw_mpu6050_receiver.o
 .bss           0x00000000        0x0 ..\obj\bw_mpu6050_receiver.o
 .debug_info    0x00000000      0xc12 ..\obj\bw_mpu6050_receiver.o
 .debug_abbrev  0x00000000      0x129 ..\obj\bw_mpu6050_receiver.o
 .debug_aranges
                0x00000000       0x18 ..\obj\bw_mpu6050_receiver.o
 .debug_line    0x00000000      0x498 ..\obj\bw_mpu6050_receiver.o
 .debug_str     0x00000000      0xbe8 ..\obj\bw_mpu6050_receiver.o
 .comment       0x00000000       0x71 ..\obj\bw_mpu6050_receiver.o
 .ARM.attributes
                0x00000000       0x33 ..\obj\bw_mpu6050_receiver.o
 .text          0x00000000        0x0 ..\obj\bw_bldc_fan.o
 .data          0x00000000        0x0 ..\obj\bw_bldc_fan.o
 .bss           0x00000000        0x0 ..\obj\bw_bldc_fan.o
 .text.BW_BLDC_Fight
                0x00000000       0x20 ..\obj\bw_bldc_fan.o
 .text.BW_Suppress_Fire
                0x00000000        0x4 ..\obj\bw_bldc_fan.o
 .text.TIM12_PWM_Config
                0x00000000       0x94 ..\obj\bw_bldc_fan.o
 .text.TIM4_PWM_Init
                0x00000000       0x90 ..\obj\bw_bldc_fan.o
 .text.BW_BLDC_Init
                0x00000000       0x14 ..\obj\bw_bldc_fan.o
 .text.button_init
                0x00000000       0x2c ..\obj\bw_bldc_fan.o
 .debug_info    0x00000000     0x1222 ..\obj\bw_bldc_fan.o
 .debug_abbrev  0x00000000      0x1fe ..\obj\bw_bldc_fan.o
 .debug_aranges
                0x00000000       0x48 ..\obj\bw_bldc_fan.o
 .debug_ranges  0x00000000       0x38 ..\obj\bw_bldc_fan.o
 .debug_line    0x00000000      0x576 ..\obj\bw_bldc_fan.o
 .debug_str     0x00000000      0xddc ..\obj\bw_bldc_fan.o
 .comment       0x00000000       0x71 ..\obj\bw_bldc_fan.o
 .ARM.attributes
                0x00000000       0x33 ..\obj\bw_bldc_fan.o
 .debug_frame   0x00000000       0xa0 ..\obj\bw_bldc_fan.o
 .text          0x00000000        0x0 ..\obj\bw_infrared_proximity.o
 .data          0x00000000        0x0 ..\obj\bw_infrared_proximity.o
 .bss           0x00000000        0x0 ..\obj\bw_infrared_proximity.o
 .text.Get_IR_Right
                0x00000000       0x18 ..\obj\bw_infrared_proximity.o
 .text.Get_IR_Left
                0x00000000       0x1c ..\obj\bw_infrared_proximity.o
 .text.Display_IR_Stat
                0x00000000      0x104 ..\obj\bw_infrared_proximity.o
 .rodata.str1.4
                0x00000000       0x48 ..\obj\bw_infrared_proximity.o
 .text          0x00000000        0x0 ..\obj\bw_pid_controller.o
 .data          0x00000000        0x4 ..\obj\bw_pid_controller.o
 .bss           0x00000000        0x0 ..\obj\bw_pid_controller.o
 .text.Fuzzy_Follow_kanan
                0x00000000      0x380 ..\obj\bw_pid_controller.o
 .text.Fuzzy_Follow_kiri
                0x00000000      0x380 ..\obj\bw_pid_controller.o
 .text.BW_PID_Init_Reverse
                0x00000000       0xe8 ..\obj\bw_pid_controller.o
 .text.BW_PID_Flame_Init
                0x00000000       0xe8 ..\obj\bw_pid_controller.o
 .text.PID_Runtime_Tuning
                0x00000000      0x2d8 ..\obj\bw_pid_controller.o
 .text          0x00000000        0x0 ..\obj\bw_utilities.o
 .data          0x00000000        0x0 ..\obj\bw_utilities.o
 .bss           0x00000000        0x0 ..\obj\bw_utilities.o
 .text          0x00000000        0x0 ..\obj\stm32f4xx_gpio.o
 .data          0x00000000        0x0 ..\obj\stm32f4xx_gpio.o
 .bss           0x00000000        0x0 ..\obj\stm32f4xx_gpio.o
 .text.GPIO_DeInit
                0x00000000      0x104 ..\obj\stm32f4xx_gpio.o
 .text.GPIO_StructInit
                0x00000000       0x14 ..\obj\stm32f4xx_gpio.o
 .text.GPIO_PinLockConfig
                0x00000000       0x24 ..\obj\stm32f4xx_gpio.o
 .text.GPIO_ReadInputData
                0x00000000        0x8 ..\obj\stm32f4xx_gpio.o
 .text.GPIO_ReadOutputDataBit
                0x00000000        0xc ..\obj\stm32f4xx_gpio.o
 .text.GPIO_ReadOutputData
                0x00000000        0x8 ..\obj\stm32f4xx_gpio.o
 .text.GPIO_WriteBit
                0x00000000        0xc ..\obj\stm32f4xx_gpio.o
 .text.GPIO_Write
                0x00000000        0x4 ..\obj\stm32f4xx_gpio.o
 .text.GPIO_ToggleBits
                0x00000000        0x8 ..\obj\stm32f4xx_gpio.o
 .text          0x00000000        0x0 ..\obj\bw_dynamixel_xl_320.o
 .data          0x00000000        0x0 ..\obj\bw_dynamixel_xl_320.o
 .bss           0x00000000        0x0 ..\obj\bw_dynamixel_xl_320.o
 .text.Dynamixel_USART1_Init
                0x00000000       0x94 ..\obj\bw_dynamixel_xl_320.o
 .text.DynamixelSend
                0x00000000       0x38 ..\obj\bw_dynamixel_xl_320.o
 .text.MoveSpeed
                0x00000000       0x38 ..\obj\bw_dynamixel_xl_320.o
 .text.CRC_Update
                0x00000000       0x40 ..\obj\bw_dynamixel_xl_320.o
 .rodata        0x00000000      0x200 ..\obj\bw_dynamixel_xl_320.o
 .debug_info    0x00000000     0x13ce ..\obj\bw_dynamixel_xl_320.o
 .debug_abbrev  0x00000000      0x241 ..\obj\bw_dynamixel_xl_320.o
 .debug_loc     0x00000000      0x1bd ..\obj\bw_dynamixel_xl_320.o
 .debug_aranges
                0x00000000       0x38 ..\obj\bw_dynamixel_xl_320.o
 .debug_ranges  0x00000000       0x28 ..\obj\bw_dynamixel_xl_320.o
 .debug_line    0x00000000      0x542 ..\obj\bw_dynamixel_xl_320.o
 .debug_str     0x00000000     0x12a6 ..\obj\bw_dynamixel_xl_320.o
 .comment       0x00000000       0x71 ..\obj\bw_dynamixel_xl_320.o
 .ARM.attributes
                0x00000000       0x33 ..\obj\bw_dynamixel_xl_320.o
 .debug_frame   0x00000000       0x88 ..\obj\bw_dynamixel_xl_320.o
 .text          0x00000000        0x0 ..\obj\system_stm32f4xx.o
 .bss           0x00000000        0x0 ..\obj\system_stm32f4xx.o
 .text.SystemCoreClockUpdate
                0x00000000       0x8c ..\obj\system_stm32f4xx.o
 .text          0x00000000        0x0 ..\obj\syscalls.o
 .data          0x00000000        0x0 ..\obj\syscalls.o
 .text.link     0x00000000        0x8 ..\obj\syscalls.o
 .text._close   0x00000000        0x8 ..\obj\syscalls.o
 .text._fstat   0x00000000        0xc ..\obj\syscalls.o
 .text._isatty  0x00000000        0x4 ..\obj\syscalls.o
 .text._lseek   0x00000000        0x4 ..\obj\syscalls.o
 .text._read    0x00000000        0x4 ..\obj\syscalls.o
 .text._write   0x00000000        0x4 ..\obj\syscalls.o
 .text.abort    0x00000000        0x4 ..\obj\syscalls.o
 .text          0x00000000        0x0 ..\obj\bw_UV-TRON.o
 .data          0x00000000        0x0 ..\obj\bw_UV-TRON.o
 .bss           0x00000000        0x0 ..\obj\bw_UV-TRON.o
 .text.BW_Display_UV_Stat
                0x00000000       0x30 ..\obj\bw_UV-TRON.o
 .text.UV_GPIO_Init_Right
                0x00000000       0x30 ..\obj\bw_UV-TRON.o
 .text.UV_GPIO_Init_Left
                0x00000000       0x2c ..\obj\bw_UV-TRON.o
 .text.BW_UV_TRON_Init
                0x00000000        0x8 ..\obj\bw_UV-TRON.o
 .rodata.str1.4
                0x00000000       0x10 ..\obj\bw_UV-TRON.o
 .text          0x00000000        0x0 ..\obj\bw_systick_delay.o
 .data          0x00000000        0x0 ..\obj\bw_systick_delay.o
 .text          0x00000000        0x0 ..\obj\bw_dynamixel_hexapod_cmd.o
 .data          0x00000000       0x34 ..\obj\bw_dynamixel_hexapod_cmd.o
 .bss           0x00000000        0x0 ..\obj\bw_dynamixel_hexapod_cmd.o
 .text.HexDemo  0x00000000       0x84 ..\obj\bw_dynamixel_hexapod_cmd.o
 .text.Dynamx_MovFwd4cm_Interpolate22
                0x00000000      0xf58 ..\obj\bw_dynamixel_hexapod_cmd.o
 .text.Trajectory_Test
                0x00000000      0x328 ..\obj\bw_dynamixel_hexapod_cmd.o
 .text.Dynamx_MovFwd4cm_Trajectory
                0x00000000     0x1118 ..\obj\bw_dynamixel_hexapod_cmd.o
 .text.FloatToInt
                0x00000000       0x28 ..\obj\bw_dynamixel_hexapod_cmd.o
 .text.RadToMicro
                0x00000000       0x80 ..\obj\bw_dynamixel_hexapod_cmd.o
 .text.SpeedTrig_sin
                0x00000000       0xc4 ..\obj\bw_dynamixel_hexapod_cmd.o
 .text.SpeedTrig_acos
                0x00000000      0x168 ..\obj\bw_dynamixel_hexapod_cmd.o
 .text.SpeedTrig_atan2
                0x00000000       0x4c ..\obj\bw_dynamixel_hexapod_cmd.o
 .text.Dynamx_LegIK
                0x00000000      0x360 ..\obj\bw_dynamixel_hexapod_cmd.o
 .text.IK_Test  0x00000000       0x50 ..\obj\bw_dynamixel_hexapod_cmd.o
 .text.IK_Right
                0x00000000      0x420 ..\obj\bw_dynamixel_hexapod_cmd.o
 .text.IK_Left  0x00000000      0x420 ..\obj\bw_dynamixel_hexapod_cmd.o
 .text.Dynamx_Mov_Static_Low
                0x00000000       0x64 ..\obj\bw_dynamixel_hexapod_cmd.o
 .text.Dynamx_MovFwd3cm
                0x00000000      0xa58 ..\obj\bw_dynamixel_hexapod_cmd.o
 .text.Dynamx_MovFwd3cm_Interpolate
                0x00000000      0x3bc ..\obj\bw_dynamixel_hexapod_cmd.o
 .text.Dynamx_MovFwd4cm_Button_Trigger
                0x00000000     0x2d90 ..\obj\bw_dynamixel_hexapod_cmd.o
 .text.Dynamx_MovFwd4cm_slow
                0x00000000     0x1734 ..\obj\bw_dynamixel_hexapod_cmd.o
 .text.Dynamx_MovFwd1cm
                0x00000000      0x700 ..\obj\bw_dynamixel_hexapod_cmd.o
 .text.Dynamx_MovBwd
                0x00000000     0x1240 ..\obj\bw_dynamixel_hexapod_cmd.o
 .text.Dynamx_Rot_Correction_Left
                0x00000000        0x4 ..\obj\bw_dynamixel_hexapod_cmd.o
 .text.Dynamx_Rot_Correction_Right
                0x00000000        0x4 ..\obj\bw_dynamixel_hexapod_cmd.o
 .text.Dynamx_Corner_Rot_Right
                0x00000000       0x1c ..\obj\bw_dynamixel_hexapod_cmd.o
 .text.Dynamx_Corner_Rot_Left
                0x00000000       0x1c ..\obj\bw_dynamixel_hexapod_cmd.o
 .text.Dynamx_Rot_Right_PID
                0x00000000      0xdd8 ..\obj\bw_dynamixel_hexapod_cmd.o
 .text.Dynamx_Rot_Left_PID
                0x00000000      0xdd0 ..\obj\bw_dynamixel_hexapod_cmd.o
 .text.Dynamx_Slide_Right
                0x00000000      0x95c ..\obj\bw_dynamixel_hexapod_cmd.o
 .text.Dynamx_CurveRight_PID_Interpolate2
                0x00000000     0x1174 ..\obj\bw_dynamixel_hexapod_cmd.o
 .text.Curve_Response_Test
                0x00000000       0x30 ..\obj\bw_dynamixel_hexapod_cmd.o
 .text.Dynamx_CurveRight_PID_SLOW
                0x00000000      0x85c ..\obj\bw_dynamixel_hexapod_cmd.o
 .text.Dynamx_CurveRight
                0x00000000     0x1024 ..\obj\bw_dynamixel_hexapod_cmd.o
 .text.Dynamx_CurveLeft_PID_Interpolate2
                0x00000000     0x1174 ..\obj\bw_dynamixel_hexapod_cmd.o
 .text.Dynamx_CurveLeft_PID_SLOW
                0x00000000      0x850 ..\obj\bw_dynamixel_hexapod_cmd.o
 .text.Dynamx_CurveLeft
                0x00000000     0x101c ..\obj\bw_dynamixel_hexapod_cmd.o
 .text.Dynamx_MovFwd3cm_Reverse
                0x00000000      0x6fc ..\obj\bw_dynamixel_hexapod_cmd.o
 .text.Dynamx_Rot_Right_Reverse
                0x00000000      0x4b0 ..\obj\bw_dynamixel_hexapod_cmd.o
 .text.Dynamx_Rot_Left_Reverse
                0x00000000      0x4b0 ..\obj\bw_dynamixel_hexapod_cmd.o
 .text.Dynamx_CurveRight_PID_Reverse
                0x00000000     0x1174 ..\obj\bw_dynamixel_hexapod_cmd.o
 .text.Dynamx_CurveRight_Reverse
                0x00000000      0xb50 ..\obj\bw_dynamixel_hexapod_cmd.o
 .text.Dynamx_CurveLeft_PID_Reverse
                0x00000000     0x11b4 ..\obj\bw_dynamixel_hexapod_cmd.o
 .text.Dynamx_CurveLeft_Reverse
                0x00000000      0xb50 ..\obj\bw_dynamixel_hexapod_cmd.o
 .text.Dynamx_Extinguish_High
                0x00000000      0x1f4 ..\obj\bw_dynamixel_hexapod_cmd.o
 .text.Dynamx_Mov_Extinguish
                0x00000000      0x348 ..\obj\bw_dynamixel_hexapod_cmd.o
 .text.Dynamx_Mov_Extinguish_V10
                0x00000000      0x280 ..\obj\bw_dynamixel_hexapod_cmd.o
 .text.Dynamx_Mov_Extinguish_VER2
                0x00000000      0x370 ..\obj\bw_dynamixel_hexapod_cmd.o
 .text.Dynamx_Mov_Extinguish_High
                0x00000000      0x520 ..\obj\bw_dynamixel_hexapod_cmd.o
 .text.Dynamx_Mov_Tracking
                0x00000000      0x588 ..\obj\bw_dynamixel_hexapod_cmd.o
 .text.Dynamx_CurveRight_Flame_PID
                0x00000000     0x12d4 ..\obj\bw_dynamixel_hexapod_cmd.o
 .text.Dynamx_CurveLeft_Flame_PID
                0x00000000     0x12dc ..\obj\bw_dynamixel_hexapod_cmd.o
 .text.Read_HexCMD
                0x00000000       0xa8 ..\obj\bw_dynamixel_hexapod_cmd.o
 .text.Dynamx_FollowRight_PID
                0x00000000      0x84c ..\obj\bw_dynamixel_hexapod_cmd.o
 COMMON         0x00000000       0x18 ..\obj\bw_dynamixel_hexapod_cmd.o
 .text          0x00000000        0x0 ..\obj\bw_tpa_servo.o
 .data          0x00000000        0x0 ..\obj\bw_tpa_servo.o
 .bss           0x00000000        0x0 ..\obj\bw_tpa_servo.o
 .text.TIM12_PWM_Configuration
                0x00000000       0x90 ..\obj\bw_tpa_servo.o
 .text.PanServo_Init
                0x00000000       0x14 ..\obj\bw_tpa_servo.o
 .text.Set_Servo
                0x00000000      0x2f8 ..\obj\bw_tpa_servo.o
 .text.TIM4_PWM_Configuration
                0x00000000       0x90 ..\obj\bw_tpa_servo.o
 .text.Set_Servo2
                0x00000000       0x28 ..\obj\bw_tpa_servo.o
 .text.BW_Thermopile_Init
                0x00000000        0x4 ..\obj\bw_tpa_servo.o
 .text.Setup_I2C
                0x00000000        0x4 ..\obj\bw_tpa_servo.o
 .text.Write_I2C
                0x00000000       0xa0 ..\obj\bw_tpa_servo.o
 .text.tpa_servo
                0x00000000       0x68 ..\obj\bw_tpa_servo.o
 .text.I2C2_ReadByte
                0x00000000      0x194 ..\obj\bw_tpa_servo.o
 .text.I2C2_ReadMultiByte
                0x00000000      0x1d0 ..\obj\bw_tpa_servo.o
 .text.I2C2_WriteByte
                0x00000000      0x114 ..\obj\bw_tpa_servo.o
 .text.I2C2_WriteMultiByte
                0x00000000        0xc ..\obj\bw_tpa_servo.o
 .rodata        0x00000000        0xc ..\obj\bw_tpa_servo.o
 .text          0x00000000        0x0 ..\obj\bw_interrupt_monitor.o
 .data          0x00000000        0x0 ..\obj\bw_interrupt_monitor.o
 .bss           0x00000000        0x0 ..\obj\bw_interrupt_monitor.o
 .debug_info    0x00000000      0xc12 ..\obj\bw_interrupt_monitor.o
 .debug_abbrev  0x00000000      0x129 ..\obj\bw_interrupt_monitor.o
 .debug_aranges
                0x00000000       0x18 ..\obj\bw_interrupt_monitor.o
 .debug_line    0x00000000      0x498 ..\obj\bw_interrupt_monitor.o
 .debug_str     0x00000000      0xbe9 ..\obj\bw_interrupt_monitor.o
 .comment       0x00000000       0x71 ..\obj\bw_interrupt_monitor.o
 .ARM.attributes
                0x00000000       0x33 ..\obj\bw_interrupt_monitor.o
 .text          0x00000000        0x0 ..\obj\stm32f4xx_i2c.o
 .data          0x00000000        0x0 ..\obj\stm32f4xx_i2c.o
 .bss           0x00000000        0x0 ..\obj\stm32f4xx_i2c.o
 .text.I2C_StructInit
                0x00000000       0x1c ..\obj\stm32f4xx_i2c.o
 .text.I2C_OwnAddress2Config
                0x00000000       0x14 ..\obj\stm32f4xx_i2c.o
 .text.I2C_DualAddressCmd
                0x00000000       0x1c ..\obj\stm32f4xx_i2c.o
 .text.I2C_GeneralCallCmd
                0x00000000       0x1c ..\obj\stm32f4xx_i2c.o
 .text.I2C_StretchClockCmd
                0x00000000       0x1c ..\obj\stm32f4xx_i2c.o
 .text.I2C_FastModeDutyCycleConfig
                0x00000000       0x20 ..\obj\stm32f4xx_i2c.o
 .text.I2C_NACKPositionConfig
                0x00000000       0x20 ..\obj\stm32f4xx_i2c.o
 .text.I2C_SMBusAlertConfig
                0x00000000       0x20 ..\obj\stm32f4xx_i2c.o
 .text.I2C_ARPCmd
                0x00000000       0x1c ..\obj\stm32f4xx_i2c.o
 .text.I2C_TransmitPEC
                0x00000000       0x1c ..\obj\stm32f4xx_i2c.o
 .text.I2C_PECPositionConfig
                0x00000000       0x20 ..\obj\stm32f4xx_i2c.o
 .text.I2C_CalculatePEC
                0x00000000       0x1c ..\obj\stm32f4xx_i2c.o
 .text.I2C_GetPEC
                0x00000000        0x8 ..\obj\stm32f4xx_i2c.o
 .text.I2C_DMACmd
                0x00000000       0x1c ..\obj\stm32f4xx_i2c.o
 .text.I2C_DMALastTransferCmd
                0x00000000       0x1c ..\obj\stm32f4xx_i2c.o
 .text.I2C_ReadRegister
                0x00000000       0x18 ..\obj\stm32f4xx_i2c.o
 .text.I2C_ITConfig
                0x00000000       0x18 ..\obj\stm32f4xx_i2c.o
 .text.I2C_GetLastEvent
                0x00000000       0x10 ..\obj\stm32f4xx_i2c.o
 .text.I2C_ClearFlag
                0x00000000        0x8 ..\obj\stm32f4xx_i2c.o
 .text.I2C_GetITStatus
                0x00000000       0x20 ..\obj\stm32f4xx_i2c.o
 .text.I2C_ClearITPendingBit
                0x00000000        0x8 ..\obj\stm32f4xx_i2c.o
 .text          0x00000000        0x0 ..\obj\bw_lcd.o
 .data          0x00000000        0x0 ..\obj\bw_lcd.o
 .bss           0x00000000        0x0 ..\obj\bw_lcd.o
 .text.RS_on    0x00000000       0x14 ..\obj\bw_lcd.o
 .text.lcd_write_cmd_nible
                0x00000000       0x10 ..\obj\bw_lcd.o
 .text.lcd_write_data_byte
                0x00000000       0x10 ..\obj\bw_lcd.o
 .text.lcd_putch
                0x00000000        0x8 ..\obj\bw_lcd.o
 .text.lcd_save_customchar
                0x00000000       0x30 ..\obj\bw_lcd.o
 .text.lcd_write_customchar
                0x00000000       0x10 ..\obj\bw_lcd.o
 .text.lcd_home
                0x00000000        0x8 ..\obj\bw_lcd.o
 .text.lcd_cursor_on_blink_on
                0x00000000       0x14 ..\obj\bw_lcd.o
 .text.tampil   0x00000000       0x58 ..\obj\bw_lcd.o
 .text.tampil1000
                0x00000000       0x78 ..\obj\bw_lcd.o
 .text          0x00000000        0x0 ..\obj\misc.o
 .data          0x00000000        0x0 ..\obj\misc.o
 .bss           0x00000000        0x0 ..\obj\misc.o
 .text.NVIC_PriorityGroupConfig
                0x00000000       0x14 ..\obj\misc.o
 .text.NVIC_SetVectorTable
                0x00000000       0x14 ..\obj\misc.o
 .text.NVIC_SystemLPConfig
                0x00000000       0x1c ..\obj\misc.o
 .text.SysTick_CLKSourceConfig
                0x00000000       0x18 ..\obj\misc.o
 .text          0x00000000        0x0 ..\obj\bw_cmps11.o
 .data          0x00000000        0x0 ..\obj\bw_cmps11.o
 .bss           0x00000000        0x0 ..\obj\bw_cmps11.o
 .text.RyanRead_I2C3
                0x00000000       0xf4 ..\obj\bw_cmps11.o
 .text.I2C3_ReadMultiByte
                0x00000000      0x1d0 ..\obj\bw_cmps11.o
 .text.I2C3_WriteByte
                0x00000000      0x114 ..\obj\bw_cmps11.o
 .text.I2C3_WriteMultiByte
                0x00000000        0x8 ..\obj\bw_cmps11.o
 .text.CMPS11_I2C_Calibration
                0x00000000       0xcc ..\obj\bw_cmps11.o
 .text.CMPS12_I2C_Store_Profile
                0x00000000       0x48 ..\obj\bw_cmps11.o
 .text.CMPS12_I2C_Delete_Profile
                0x00000000       0x34 ..\obj\bw_cmps11.o
 .text.GetCMPS11_MagRaw
                0x00000000       0xc8 ..\obj\bw_cmps11.o
 .text.GetCMPS11_AccRaw
                0x00000000       0xc8 ..\obj\bw_cmps11.o
 .text.GetCMPS11_GyroRaw
                0x00000000       0xe0 ..\obj\bw_cmps11.o
 .text.GetCMPS11_Temperature
                0x00000000       0x68 ..\obj\bw_cmps11.o
 .text.CMPS11_GetComplementaryFilter
                0x00000000      0x3b0 ..\obj\bw_cmps11.o
 .text.CMPS11_Transmit
                0x00000000       0x20 ..\obj\bw_cmps11.o
 .text.CMPS11_Calibration
                0x00000000       0xa0 ..\obj\bw_cmps11.o
 .text.CMPS11_GetPitch
                0x00000000       0x34 ..\obj\bw_cmps11.o
 .text.CMPS11_GetRoll
                0x00000000       0x34 ..\obj\bw_cmps11.o
 .text.CMPS11_GetAngle16Bit
                0x00000000       0x68 ..\obj\bw_cmps11.o
 .text.CMPS11_GetAngle8Bit
                0x00000000       0x34 ..\obj\bw_cmps11.o
 .text.I2C3_Init
                0x00000000       0xc4 ..\obj\bw_cmps11.o
 .text.CMPS12_Get_Calibration_Status
                0x00000000       0xc0 ..\obj\bw_cmps11.o
 .text.GetCMPS11_Pitch
                0x00000000       0x6c ..\obj\bw_cmps11.o
 .text.GetCMPS11_Roll
                0x00000000       0x6c ..\obj\bw_cmps11.o
 .text.HOME_START_POSITION
                0x00000000       0x30 ..\obj\bw_cmps11.o
 .text.GetCMPS11_Angle8Bit_Debug
                0x00000000      0x140 ..\obj\bw_cmps11.o
 .text.GetCMPS11_Angle16Bit
                0x00000000       0x88 ..\obj\bw_cmps11.o
 .text.CMPS11_Check
                0x00000000       0x1c ..\obj\bw_cmps11.o
 .text.I2C3_Test
                0x00000000       0xf4 ..\obj\bw_cmps11.o
 .text          0x00000000        0x0 ..\obj\bw_gy_85.o
 .data          0x00000000        0x0 ..\obj\bw_gy_85.o
 .bss           0x00000000        0x0 ..\obj\bw_gy_85.o
 .text.GY_85_I2C_Init
                0x00000000       0x8c ..\obj\bw_gy_85.o
 .text.BW_GY_85_Init
                0x00000000        0x8 ..\obj\bw_gy_85.o
 .text.Write_I2C2
                0x00000000       0xa0 ..\obj\bw_gy_85.o
 .text.Read_I2C2
                0x00000000       0xf8 ..\obj\bw_gy_85.o
 .text.ADXL345_Init
                0x00000000       0x50 ..\obj\bw_gy_85.o
 .text.ADXL345_RangeConfig
                0x00000000       0x3c ..\obj\bw_gy_85.o
 .text.ADXL345_GetRange
                0x00000000       0x28 ..\obj\bw_gy_85.o
 .text.ADXL_DataRate_Config
                0x00000000       0x10 ..\obj\bw_gy_85.o
 .text.ReadAccel_ADXL345
                0x00000000       0x8c ..\obj\bw_gy_85.o
 .text.GetOrientation
                0x00000000      0x1d8 ..\obj\bw_gy_85.o
 .rodata.str1.4
                0x00000000      0x104 ..\obj\bw_gy_85.o
 .debug_info    0x00000000     0x1a68 ..\obj\bw_gy_85.o
 .debug_abbrev  0x00000000      0x2c0 ..\obj\bw_gy_85.o
 .debug_loc     0x00000000      0x296 ..\obj\bw_gy_85.o
 .debug_aranges
                0x00000000       0x68 ..\obj\bw_gy_85.o
 .debug_ranges  0x00000000       0x58 ..\obj\bw_gy_85.o
 .debug_line    0x00000000      0x63d ..\obj\bw_gy_85.o
 .debug_str     0x00000000     0x117d ..\obj\bw_gy_85.o
 .comment       0x00000000       0x71 ..\obj\bw_gy_85.o
 .ARM.attributes
                0x00000000       0x33 ..\obj\bw_gy_85.o
 .debug_frame   0x00000000      0x134 ..\obj\bw_gy_85.o
 COMMON         0x00000000       0x40 ..\obj\bw_gy_85.o
 .text          0x00000000        0x0 ..\obj\bw_tcs3200_receiver.o
 .data          0x00000000        0x0 ..\obj\bw_tcs3200_receiver.o
 .bss           0x00000000        0x0 ..\obj\bw_tcs3200_receiver.o
 .text.Display_TCS3200
                0x00000000       0xb0 ..\obj\bw_tcs3200_receiver.o
 .text.Display_TCS3200_CMD_CODE
                0x00000000       0xa0 ..\obj\bw_tcs3200_receiver.o
 .text.Get_TCS3200_Rule
                0x00000000       0xb0 ..\obj\bw_tcs3200_receiver.o
 .text.Button_CMD
                0x00000000       0xc8 ..\obj\bw_tcs3200_receiver.o
 .text.TCS3200_MainMenu
                0x00000000      0x250 ..\obj\bw_tcs3200_receiver.o
 .text.TCS3200_Command
                0x00000000       0x78 ..\obj\bw_tcs3200_receiver.o
 .text.BW_MainMenu
                0x00000000      0x30c ..\obj\bw_tcs3200_receiver.o
 .text          0x00000000        0x0 ..\obj\stm32f4xx_tim.o
 .data          0x00000000        0x0 ..\obj\stm32f4xx_tim.o
 .bss           0x00000000        0x0 ..\obj\stm32f4xx_tim.o
 .text.TI1_Config
                0x00000000       0x34 ..\obj\stm32f4xx_tim.o
 .text.TI2_Config
                0x00000000       0x3c ..\obj\stm32f4xx_tim.o
 .text.TIM_DeInit
                0x00000000      0x198 ..\obj\stm32f4xx_tim.o
 .text.TIM_TimeBaseStructInit
                0x00000000       0x14 ..\obj\stm32f4xx_tim.o
 .text.TIM_PrescalerConfig
                0x00000000        0x8 ..\obj\stm32f4xx_tim.o
 .text.TIM_CounterModeConfig
                0x00000000       0x10 ..\obj\stm32f4xx_tim.o
 .text.TIM_SetCounter
                0x00000000        0x4 ..\obj\stm32f4xx_tim.o
 .text.TIM_SetAutoreload
                0x00000000        0x4 ..\obj\stm32f4xx_tim.o
 .text.TIM_GetCounter
                0x00000000        0x4 ..\obj\stm32f4xx_tim.o
 .text.TIM_GetPrescaler
                0x00000000        0x8 ..\obj\stm32f4xx_tim.o
 .text.TIM_UpdateDisableConfig
                0x00000000       0x1c ..\obj\stm32f4xx_tim.o
 .text.TIM_UpdateRequestConfig
                0x00000000       0x1c ..\obj\stm32f4xx_tim.o
 .text.TIM_ARRPreloadConfig
                0x00000000       0x1c ..\obj\stm32f4xx_tim.o
 .text.TIM_SelectOnePulseMode
                0x00000000       0x18 ..\obj\stm32f4xx_tim.o
 .text.TIM_SetClockDivision
                0x00000000       0x18 ..\obj\stm32f4xx_tim.o
 .text.TIM_OC1Init
                0x00000000       0x74 ..\obj\stm32f4xx_tim.o
 .text.TIM_OC2Init
                0x00000000       0x88 ..\obj\stm32f4xx_tim.o
 .text.TIM_OC3Init
                0x00000000       0x84 ..\obj\stm32f4xx_tim.o
 .text.TIM_OC4Init
                0x00000000       0x68 ..\obj\stm32f4xx_tim.o
 .text.TIM_OCStructInit
                0x00000000       0x14 ..\obj\stm32f4xx_tim.o
 .text.TIM_SelectOCxM
                0x00000000       0x54 ..\obj\stm32f4xx_tim.o
 .text.TIM_SetCompare1
                0x00000000        0x4 ..\obj\stm32f4xx_tim.o
 .text.TIM_SetCompare2
                0x00000000        0x4 ..\obj\stm32f4xx_tim.o
 .text.TIM_SetCompare3
                0x00000000        0x4 ..\obj\stm32f4xx_tim.o
 .text.TIM_SetCompare4
                0x00000000        0x4 ..\obj\stm32f4xx_tim.o
 .text.TIM_ForcedOC1Config
                0x00000000       0x10 ..\obj\stm32f4xx_tim.o
 .text.TIM_ForcedOC2Config
                0x00000000       0x14 ..\obj\stm32f4xx_tim.o
 .text.TIM_ForcedOC3Config
                0x00000000       0x10 ..\obj\stm32f4xx_tim.o
 .text.TIM_ForcedOC4Config
                0x00000000       0x14 ..\obj\stm32f4xx_tim.o
 .text.TIM_OC1PreloadConfig
                0x00000000       0x10 ..\obj\stm32f4xx_tim.o
 .text.TIM_OC2PreloadConfig
                0x00000000       0x14 ..\obj\stm32f4xx_tim.o
 .text.TIM_OC3PreloadConfig
                0x00000000       0x10 ..\obj\stm32f4xx_tim.o
 .text.TIM_OC4PreloadConfig
                0x00000000       0x14 ..\obj\stm32f4xx_tim.o
 .text.TIM_OC1FastConfig
                0x00000000       0x10 ..\obj\stm32f4xx_tim.o
 .text.TIM_OC2FastConfig
                0x00000000       0x14 ..\obj\stm32f4xx_tim.o
 .text.TIM_OC3FastConfig
                0x00000000       0x10 ..\obj\stm32f4xx_tim.o
 .text.TIM_OC4FastConfig
                0x00000000       0x14 ..\obj\stm32f4xx_tim.o
 .text.TIM_ClearOC1Ref
                0x00000000       0x10 ..\obj\stm32f4xx_tim.o
 .text.TIM_ClearOC2Ref
                0x00000000       0x10 ..\obj\stm32f4xx_tim.o
 .text.TIM_ClearOC3Ref
                0x00000000       0x10 ..\obj\stm32f4xx_tim.o
 .text.TIM_ClearOC4Ref
                0x00000000       0x10 ..\obj\stm32f4xx_tim.o
 .text.TIM_OC1PolarityConfig
                0x00000000       0x10 ..\obj\stm32f4xx_tim.o
 .text.TIM_OC1NPolarityConfig
                0x00000000       0x10 ..\obj\stm32f4xx_tim.o
 .text.TIM_OC2PolarityConfig
                0x00000000       0x14 ..\obj\stm32f4xx_tim.o
 .text.TIM_OC2NPolarityConfig
                0x00000000       0x14 ..\obj\stm32f4xx_tim.o
 .text.TIM_OC3PolarityConfig
                0x00000000       0x14 ..\obj\stm32f4xx_tim.o
 .text.TIM_OC3NPolarityConfig
                0x00000000       0x14 ..\obj\stm32f4xx_tim.o
 .text.TIM_OC4PolarityConfig
                0x00000000       0x14 ..\obj\stm32f4xx_tim.o
 .text.TIM_CCxCmd
                0x00000000       0x20 ..\obj\stm32f4xx_tim.o
 .text.TIM_CCxNCmd
                0x00000000       0x20 ..\obj\stm32f4xx_tim.o
 .text.TIM_ICStructInit
                0x00000000       0x10 ..\obj\stm32f4xx_tim.o
 .text.TIM_GetCapture1
                0x00000000        0x4 ..\obj\stm32f4xx_tim.o
 .text.TIM_GetCapture2
                0x00000000        0x4 ..\obj\stm32f4xx_tim.o
 .text.TIM_GetCapture3
                0x00000000        0x4 ..\obj\stm32f4xx_tim.o
 .text.TIM_GetCapture4
                0x00000000        0x4 ..\obj\stm32f4xx_tim.o
 .text.TIM_SetIC1Prescaler
                0x00000000       0x18 ..\obj\stm32f4xx_tim.o
 .text.TIM_SetIC2Prescaler
                0x00000000       0x1c ..\obj\stm32f4xx_tim.o
 .text.TIM_PWMIConfig
                0x00000000       0x6c ..\obj\stm32f4xx_tim.o
 .text.TIM_SetIC3Prescaler
                0x00000000       0x18 ..\obj\stm32f4xx_tim.o
 .text.TIM_SetIC4Prescaler
                0x00000000       0x1c ..\obj\stm32f4xx_tim.o
 .text.TIM_ICInit
                0x00000000       0xc4 ..\obj\stm32f4xx_tim.o
 .text.TIM_BDTRConfig
                0x00000000       0x24 ..\obj\stm32f4xx_tim.o
 .text.TIM_BDTRStructInit
                0x00000000       0x14 ..\obj\stm32f4xx_tim.o
 .text.TIM_CtrlPWMOutputs
                0x00000000       0x24 ..\obj\stm32f4xx_tim.o
 .text.TIM_SelectCOM
                0x00000000       0x1c ..\obj\stm32f4xx_tim.o
 .text.TIM_CCPreloadControl
                0x00000000       0x1c ..\obj\stm32f4xx_tim.o
 .text.TIM_GenerateEvent
                0x00000000        0x4 ..\obj\stm32f4xx_tim.o
 .text.TIM_GetFlagStatus
                0x00000000        0xc ..\obj\stm32f4xx_tim.o
 .text.TIM_DMAConfig
                0x00000000        0x8 ..\obj\stm32f4xx_tim.o
 .text.TIM_DMACmd
                0x00000000       0x18 ..\obj\stm32f4xx_tim.o
 .text.TIM_SelectCCDMA
                0x00000000       0x1c ..\obj\stm32f4xx_tim.o
 .text.TIM_InternalClockConfig
                0x00000000       0x10 ..\obj\stm32f4xx_tim.o
 .text.TIM_ITRxExternalClockConfig
                0x00000000       0x1c ..\obj\stm32f4xx_tim.o
 .text.TIM_TIxExternalClockConfig
                0x00000000       0x38 ..\obj\stm32f4xx_tim.o
 .text.TIM_SelectInputTrigger
                0x00000000       0x10 ..\obj\stm32f4xx_tim.o
 .text.TIM_SelectOutputTrigger
                0x00000000       0x18 ..\obj\stm32f4xx_tim.o
 .text.TIM_SelectSlaveMode
                0x00000000       0x18 ..\obj\stm32f4xx_tim.o
 .text.TIM_SelectMasterSlaveMode
                0x00000000       0x18 ..\obj\stm32f4xx_tim.o
 .text.TIM_ETRConfig
                0x00000000       0x18 ..\obj\stm32f4xx_tim.o
 .text.TIM_ETRClockMode1Config
                0x00000000       0x1c ..\obj\stm32f4xx_tim.o
 .text.TIM_ETRClockMode2Config
                0x00000000       0x14 ..\obj\stm32f4xx_tim.o
 .text.TIM_EncoderInterfaceConfig
                0x00000000       0x3c ..\obj\stm32f4xx_tim.o
 .text.TIM_SelectHallSensor
                0x00000000       0x1c ..\obj\stm32f4xx_tim.o
 .text.TIM_RemapConfig
                0x00000000        0x8 ..\obj\stm32f4xx_tim.o
 .text          0x00000000        0x0 ..\obj\bw_flame_sensor.o
 .data          0x00000000        0x0 ..\obj\bw_flame_sensor.o
 .bss           0x00000000        0x0 ..\obj\bw_flame_sensor.o
 .text.Display_Flame
                0x00000000       0x2c ..\obj\bw_flame_sensor.o
 .text.Fwd_FlameSide
                0x00000000      0x4a0 ..\obj\bw_flame_sensor.o
 .rodata.str1.4
                0x00000000       0x28 ..\obj\bw_flame_sensor.o
 .text          0x00000000        0x0 C:\Program Files (x86)\GNU Tools ARM Embedded\4.8 2014q1\arm-none-eabi\lib\armv7e-m\libm.a(lib_a-s_atan.o)
 .data          0x00000000        0x0 C:\Program Files (x86)\GNU Tools ARM Embedded\4.8 2014q1\arm-none-eabi\lib\armv7e-m\libm.a(lib_a-s_atan.o)
 .bss           0x00000000        0x0 C:\Program Files (x86)\GNU Tools ARM Embedded\4.8 2014q1\arm-none-eabi\lib\armv7e-m\libm.a(lib_a-s_atan.o)
 .text          0x00000000        0x0 C:\Program Files (x86)\GNU Tools ARM Embedded\4.8 2014q1\arm-none-eabi\lib\armv7e-m\libm.a(lib_a-s_cos.o)
 .data          0x00000000        0x0 C:\Program Files (x86)\GNU Tools ARM Embedded\4.8 2014q1\arm-none-eabi\lib\armv7e-m\libm.a(lib_a-s_cos.o)
 .bss           0x00000000        0x0 C:\Program Files (x86)\GNU Tools ARM Embedded\4.8 2014q1\arm-none-eabi\lib\armv7e-m\libm.a(lib_a-s_cos.o)
 .text          0x00000000        0x0 C:\Program Files (x86)\GNU Tools ARM Embedded\4.8 2014q1\arm-none-eabi\lib\armv7e-m\libm.a(lib_a-s_fabs.o)
 .data          0x00000000        0x0 C:\Program Files (x86)\GNU Tools ARM Embedded\4.8 2014q1\arm-none-eabi\lib\armv7e-m\libm.a(lib_a-s_fabs.o)
 .bss           0x00000000        0x0 C:\Program Files (x86)\GNU Tools ARM Embedded\4.8 2014q1\arm-none-eabi\lib\armv7e-m\libm.a(lib_a-s_fabs.o)
 .text          0x00000000        0x0 C:\Program Files (x86)\GNU Tools ARM Embedded\4.8 2014q1\arm-none-eabi\lib\armv7e-m\libm.a(lib_a-s_fmax.o)
 .data          0x00000000        0x0 C:\Program Files (x86)\GNU Tools ARM Embedded\4.8 2014q1\arm-none-eabi\lib\armv7e-m\libm.a(lib_a-s_fmax.o)
 .bss           0x00000000        0x0 C:\Program Files (x86)\GNU Tools ARM Embedded\4.8 2014q1\arm-none-eabi\lib\armv7e-m\libm.a(lib_a-s_fmax.o)
 .text          0x00000000        0x0 C:\Program Files (x86)\GNU Tools ARM Embedded\4.8 2014q1\arm-none-eabi\lib\armv7e-m\libm.a(lib_a-s_fpclassify.o)
 .data          0x00000000        0x0 C:\Program Files (x86)\GNU Tools ARM Embedded\4.8 2014q1\arm-none-eabi\lib\armv7e-m\libm.a(lib_a-s_fpclassify.o)
 .bss           0x00000000        0x0 C:\Program Files (x86)\GNU Tools ARM Embedded\4.8 2014q1\arm-none-eabi\lib\armv7e-m\libm.a(lib_a-s_fpclassify.o)
 .text          0x00000000        0x0 C:\Program Files (x86)\GNU Tools ARM Embedded\4.8 2014q1\arm-none-eabi\lib\armv7e-m\libm.a(lib_a-s_sin.o)
 .data          0x00000000        0x0 C:\Program Files (x86)\GNU Tools ARM Embedded\4.8 2014q1\arm-none-eabi\lib\armv7e-m\libm.a(lib_a-s_sin.o)
 .bss           0x00000000        0x0 C:\Program Files (x86)\GNU Tools ARM Embedded\4.8 2014q1\arm-none-eabi\lib\armv7e-m\libm.a(lib_a-s_sin.o)
 .text          0x00000000        0x0 C:\Program Files (x86)\GNU Tools ARM Embedded\4.8 2014q1\arm-none-eabi\lib\armv7e-m\libm.a(lib_a-w_acos.o)
 .data          0x00000000        0x0 C:\Program Files (x86)\GNU Tools ARM Embedded\4.8 2014q1\arm-none-eabi\lib\armv7e-m\libm.a(lib_a-w_acos.o)
 .bss           0x00000000        0x0 C:\Program Files (x86)\GNU Tools ARM Embedded\4.8 2014q1\arm-none-eabi\lib\armv7e-m\libm.a(lib_a-w_acos.o)
 .text          0x00000000        0x0 C:\Program Files (x86)\GNU Tools ARM Embedded\4.8 2014q1\arm-none-eabi\lib\armv7e-m\libm.a(lib_a-w_asin.o)
 .data          0x00000000        0x0 C:\Program Files (x86)\GNU Tools ARM Embedded\4.8 2014q1\arm-none-eabi\lib\armv7e-m\libm.a(lib_a-w_asin.o)
 .bss           0x00000000        0x0 C:\Program Files (x86)\GNU Tools ARM Embedded\4.8 2014q1\arm-none-eabi\lib\armv7e-m\libm.a(lib_a-w_asin.o)
 .text.asin     0x00000000       0xa8 C:\Program Files (x86)\GNU Tools ARM Embedded\4.8 2014q1\arm-none-eabi\lib\armv7e-m\libm.a(lib_a-w_asin.o)
 .rodata.str1.4
                0x00000000        0xc C:\Program Files (x86)\GNU Tools ARM Embedded\4.8 2014q1\arm-none-eabi\lib\armv7e-m\libm.a(lib_a-w_asin.o)
 .ARM.attributes
                0x00000000       0x2e C:\Program Files (x86)\GNU Tools ARM Embedded\4.8 2014q1\arm-none-eabi\lib\armv7e-m\libm.a(lib_a-w_asin.o)
 .debug_frame   0x00000000       0x34 C:\Program Files (x86)\GNU Tools ARM Embedded\4.8 2014q1\arm-none-eabi\lib\armv7e-m\libm.a(lib_a-w_asin.o)
 .text          0x00000000        0x0 C:\Program Files (x86)\GNU Tools ARM Embedded\4.8 2014q1\arm-none-eabi\lib\armv7e-m\libm.a(lib_a-w_atan2.o)
 .data          0x00000000        0x0 C:\Program Files (x86)\GNU Tools ARM Embedded\4.8 2014q1\arm-none-eabi\lib\armv7e-m\libm.a(lib_a-w_atan2.o)
 .bss           0x00000000        0x0 C:\Program Files (x86)\GNU Tools ARM Embedded\4.8 2014q1\arm-none-eabi\lib\armv7e-m\libm.a(lib_a-w_atan2.o)
 .text.atan2    0x00000000        0x4 C:\Program Files (x86)\GNU Tools ARM Embedded\4.8 2014q1\arm-none-eabi\lib\armv7e-m\libm.a(lib_a-w_atan2.o)
 .ARM.attributes
                0x00000000       0x2e C:\Program Files (x86)\GNU Tools ARM Embedded\4.8 2014q1\arm-none-eabi\lib\armv7e-m\libm.a(lib_a-w_atan2.o)
 .debug_frame   0x00000000       0x20 C:\Program Files (x86)\GNU Tools ARM Embedded\4.8 2014q1\arm-none-eabi\lib\armv7e-m\libm.a(lib_a-w_atan2.o)
 .text          0x00000000        0x0 C:\Program Files (x86)\GNU Tools ARM Embedded\4.8 2014q1\arm-none-eabi\lib\armv7e-m\libm.a(lib_a-w_sqrt.o)
 .data          0x00000000        0x0 C:\Program Files (x86)\GNU Tools ARM Embedded\4.8 2014q1\arm-none-eabi\lib\armv7e-m\libm.a(lib_a-w_sqrt.o)
 .bss           0x00000000        0x0 C:\Program Files (x86)\GNU Tools ARM Embedded\4.8 2014q1\arm-none-eabi\lib\armv7e-m\libm.a(lib_a-w_sqrt.o)
 .text.sqrt     0x00000000       0xac C:\Program Files (x86)\GNU Tools ARM Embedded\4.8 2014q1\arm-none-eabi\lib\armv7e-m\libm.a(lib_a-w_sqrt.o)
 .rodata.str1.4
                0x00000000        0x8 C:\Program Files (x86)\GNU Tools ARM Embedded\4.8 2014q1\arm-none-eabi\lib\armv7e-m\libm.a(lib_a-w_sqrt.o)
 .ARM.attributes
                0x00000000       0x2e C:\Program Files (x86)\GNU Tools ARM Embedded\4.8 2014q1\arm-none-eabi\lib\armv7e-m\libm.a(lib_a-w_sqrt.o)
 .debug_frame   0x00000000       0x38 C:\Program Files (x86)\GNU Tools ARM Embedded\4.8 2014q1\arm-none-eabi\lib\armv7e-m\libm.a(lib_a-w_sqrt.o)
 .text          0x00000000        0x0 C:\Program Files (x86)\GNU Tools ARM Embedded\4.8 2014q1\arm-none-eabi\lib\armv7e-m\libm.a(lib_a-e_acos.o)
 .data          0x00000000        0x0 C:\Program Files (x86)\GNU Tools ARM Embedded\4.8 2014q1\arm-none-eabi\lib\armv7e-m\libm.a(lib_a-e_acos.o)
 .bss           0x00000000        0x0 C:\Program Files (x86)\GNU Tools ARM Embedded\4.8 2014q1\arm-none-eabi\lib\armv7e-m\libm.a(lib_a-e_acos.o)
 .text          0x00000000        0x0 C:\Program Files (x86)\GNU Tools ARM Embedded\4.8 2014q1\arm-none-eabi\lib\armv7e-m\libm.a(lib_a-e_asin.o)
 .data          0x00000000        0x0 C:\Program Files (x86)\GNU Tools ARM Embedded\4.8 2014q1\arm-none-eabi\lib\armv7e-m\libm.a(lib_a-e_asin.o)
 .bss           0x00000000        0x0 C:\Program Files (x86)\GNU Tools ARM Embedded\4.8 2014q1\arm-none-eabi\lib\armv7e-m\libm.a(lib_a-e_asin.o)
 .text.__ieee754_asin
                0x00000000      0x470 C:\Program Files (x86)\GNU Tools ARM Embedded\4.8 2014q1\arm-none-eabi\lib\armv7e-m\libm.a(lib_a-e_asin.o)
 .ARM.attributes
                0x00000000       0x2e C:\Program Files (x86)\GNU Tools ARM Embedded\4.8 2014q1\arm-none-eabi\lib\armv7e-m\libm.a(lib_a-e_asin.o)
 .debug_frame   0x00000000       0x38 C:\Program Files (x86)\GNU Tools ARM Embedded\4.8 2014q1\arm-none-eabi\lib\armv7e-m\libm.a(lib_a-e_asin.o)
 .text          0x00000000        0x0 C:\Program Files (x86)\GNU Tools ARM Embedded\4.8 2014q1\arm-none-eabi\lib\armv7e-m\libm.a(lib_a-e_atan2.o)
 .data          0x00000000        0x0 C:\Program Files (x86)\GNU Tools ARM Embedded\4.8 2014q1\arm-none-eabi\lib\armv7e-m\libm.a(lib_a-e_atan2.o)
 .bss           0x00000000        0x0 C:\Program Files (x86)\GNU Tools ARM Embedded\4.8 2014q1\arm-none-eabi\lib\armv7e-m\libm.a(lib_a-e_atan2.o)
 .text.__ieee754_atan2
                0x00000000      0x1f0 C:\Program Files (x86)\GNU Tools ARM Embedded\4.8 2014q1\arm-none-eabi\lib\armv7e-m\libm.a(lib_a-e_atan2.o)
 .ARM.attributes
                0x00000000       0x2e C:\Program Files (x86)\GNU Tools ARM Embedded\4.8 2014q1\arm-none-eabi\lib\armv7e-m\libm.a(lib_a-e_atan2.o)
 .debug_frame   0x00000000       0x38 C:\Program Files (x86)\GNU Tools ARM Embedded\4.8 2014q1\arm-none-eabi\lib\armv7e-m\libm.a(lib_a-e_atan2.o)
 .text          0x00000000        0x0 C:\Program Files (x86)\GNU Tools ARM Embedded\4.8 2014q1\arm-none-eabi\lib\armv7e-m\libm.a(lib_a-e_rem_pio2.o)
 .data          0x00000000        0x0 C:\Program Files (x86)\GNU Tools ARM Embedded\4.8 2014q1\arm-none-eabi\lib\armv7e-m\libm.a(lib_a-e_rem_pio2.o)
 .bss           0x00000000        0x0 C:\Program Files (x86)\GNU Tools ARM Embedded\4.8 2014q1\arm-none-eabi\lib\armv7e-m\libm.a(lib_a-e_rem_pio2.o)
 .text          0x00000000        0x0 C:\Program Files (x86)\GNU Tools ARM Embedded\4.8 2014q1\arm-none-eabi\lib\armv7e-m\libm.a(lib_a-e_sqrt.o)
 .data          0x00000000        0x0 C:\Program Files (x86)\GNU Tools ARM Embedded\4.8 2014q1\arm-none-eabi\lib\armv7e-m\libm.a(lib_a-e_sqrt.o)
 .bss           0x00000000        0x0 C:\Program Files (x86)\GNU Tools ARM Embedded\4.8 2014q1\arm-none-eabi\lib\armv7e-m\libm.a(lib_a-e_sqrt.o)
 .text          0x00000000        0x0 C:\Program Files (x86)\GNU Tools ARM Embedded\4.8 2014q1\arm-none-eabi\lib\armv7e-m\libm.a(lib_a-k_cos.o)
 .data          0x00000000        0x0 C:\Program Files (x86)\GNU Tools ARM Embedded\4.8 2014q1\arm-none-eabi\lib\armv7e-m\libm.a(lib_a-k_cos.o)
 .bss           0x00000000        0x0 C:\Program Files (x86)\GNU Tools ARM Embedded\4.8 2014q1\arm-none-eabi\lib\armv7e-m\libm.a(lib_a-k_cos.o)
 .text          0x00000000        0x0 C:\Program Files (x86)\GNU Tools ARM Embedded\4.8 2014q1\arm-none-eabi\lib\armv7e-m\libm.a(lib_a-k_rem_pio2.o)
 .data          0x00000000        0x0 C:\Program Files (x86)\GNU Tools ARM Embedded\4.8 2014q1\arm-none-eabi\lib\armv7e-m\libm.a(lib_a-k_rem_pio2.o)
 .bss           0x00000000        0x0 C:\Program Files (x86)\GNU Tools ARM Embedded\4.8 2014q1\arm-none-eabi\lib\armv7e-m\libm.a(lib_a-k_rem_pio2.o)
 .text          0x00000000        0x0 C:\Program Files (x86)\GNU Tools ARM Embedded\4.8 2014q1\arm-none-eabi\lib\armv7e-m\libm.a(lib_a-k_sin.o)
 .data          0x00000000        0x0 C:\Program Files (x86)\GNU Tools ARM Embedded\4.8 2014q1\arm-none-eabi\lib\armv7e-m\libm.a(lib_a-k_sin.o)
 .bss           0x00000000        0x0 C:\Program Files (x86)\GNU Tools ARM Embedded\4.8 2014q1\arm-none-eabi\lib\armv7e-m\libm.a(lib_a-k_sin.o)
 .text          0x00000000        0x0 C:\Program Files (x86)\GNU Tools ARM Embedded\4.8 2014q1\arm-none-eabi\lib\armv7e-m\libm.a(lib_a-s_floor.o)
 .data          0x00000000        0x0 C:\Program Files (x86)\GNU Tools ARM Embedded\4.8 2014q1\arm-none-eabi\lib\armv7e-m\libm.a(lib_a-s_floor.o)
 .bss           0x00000000        0x0 C:\Program Files (x86)\GNU Tools ARM Embedded\4.8 2014q1\arm-none-eabi\lib\armv7e-m\libm.a(lib_a-s_floor.o)
 .text          0x00000000        0x0 C:\Program Files (x86)\GNU Tools ARM Embedded\4.8 2014q1\arm-none-eabi\lib\armv7e-m\libm.a(lib_a-s_lib_ver.o)
 .data          0x00000000        0x0 C:\Program Files (x86)\GNU Tools ARM Embedded\4.8 2014q1\arm-none-eabi\lib\armv7e-m\libm.a(lib_a-s_lib_ver.o)
 .bss           0x00000000        0x0 C:\Program Files (x86)\GNU Tools ARM Embedded\4.8 2014q1\arm-none-eabi\lib\armv7e-m\libm.a(lib_a-s_lib_ver.o)
 .text          0x00000000        0x0 C:\Program Files (x86)\GNU Tools ARM Embedded\4.8 2014q1\arm-none-eabi\lib\armv7e-m\libm.a(lib_a-s_matherr.o)
 .data          0x00000000        0x0 C:\Program Files (x86)\GNU Tools ARM Embedded\4.8 2014q1\arm-none-eabi\lib\armv7e-m\libm.a(lib_a-s_matherr.o)
 .bss           0x00000000        0x0 C:\Program Files (x86)\GNU Tools ARM Embedded\4.8 2014q1\arm-none-eabi\lib\armv7e-m\libm.a(lib_a-s_matherr.o)
 .text          0x00000000        0x0 C:\Program Files (x86)\GNU Tools ARM Embedded\4.8 2014q1\arm-none-eabi\lib\armv7e-m\libm.a(lib_a-s_nan.o)
 .data          0x00000000        0x0 C:\Program Files (x86)\GNU Tools ARM Embedded\4.8 2014q1\arm-none-eabi\lib\armv7e-m\libm.a(lib_a-s_nan.o)
 .bss           0x00000000        0x0 C:\Program Files (x86)\GNU Tools ARM Embedded\4.8 2014q1\arm-none-eabi\lib\armv7e-m\libm.a(lib_a-s_nan.o)
 .text          0x00000000        0x0 C:\Program Files (x86)\GNU Tools ARM Embedded\4.8 2014q1\arm-none-eabi\lib\armv7e-m\libm.a(lib_a-s_scalbn.o)
 .data          0x00000000        0x0 C:\Program Files (x86)\GNU Tools ARM Embedded\4.8 2014q1\arm-none-eabi\lib\armv7e-m\libm.a(lib_a-s_scalbn.o)
 .bss           0x00000000        0x0 C:\Program Files (x86)\GNU Tools ARM Embedded\4.8 2014q1\arm-none-eabi\lib\armv7e-m\libm.a(lib_a-s_scalbn.o)
 .text          0x00000000        0x0 C:\Program Files (x86)\GNU Tools ARM Embedded\4.8 2014q1\arm-none-eabi\lib\armv7e-m\libm.a(lib_a-s_copysign.o)
 .data          0x00000000        0x0 C:\Program Files (x86)\GNU Tools ARM Embedded\4.8 2014q1\arm-none-eabi\lib\armv7e-m\libm.a(lib_a-s_copysign.o)
 .bss           0x00000000        0x0 C:\Program Files (x86)\GNU Tools ARM Embedded\4.8 2014q1\arm-none-eabi\lib\armv7e-m\libm.a(lib_a-s_copysign.o)
 .data          0x00000000        0x0 c:/program files (x86)/gnu tools arm embedded/4.8 2014q1/bin/../lib/gcc/arm-none-eabi/4.8.3/armv7e-m\libgcc.a(_arm_addsubdf3.o)
 .bss           0x00000000        0x0 c:/program files (x86)/gnu tools arm embedded/4.8 2014q1/bin/../lib/gcc/arm-none-eabi/4.8.3/armv7e-m\libgcc.a(_arm_addsubdf3.o)
 .data          0x00000000        0x0 c:/program files (x86)/gnu tools arm embedded/4.8 2014q1/bin/../lib/gcc/arm-none-eabi/4.8.3/armv7e-m\libgcc.a(_arm_muldivdf3.o)
 .bss           0x00000000        0x0 c:/program files (x86)/gnu tools arm embedded/4.8 2014q1/bin/../lib/gcc/arm-none-eabi/4.8.3/armv7e-m\libgcc.a(_arm_muldivdf3.o)
 .data          0x00000000        0x0 c:/program files (x86)/gnu tools arm embedded/4.8 2014q1/bin/../lib/gcc/arm-none-eabi/4.8.3/armv7e-m\libgcc.a(_arm_cmpdf2.o)
 .bss           0x00000000        0x0 c:/program files (x86)/gnu tools arm embedded/4.8 2014q1/bin/../lib/gcc/arm-none-eabi/4.8.3/armv7e-m\libgcc.a(_arm_cmpdf2.o)
 .data          0x00000000        0x0 c:/program files (x86)/gnu tools arm embedded/4.8 2014q1/bin/../lib/gcc/arm-none-eabi/4.8.3/armv7e-m\libgcc.a(_arm_fixdfsi.o)
 .bss           0x00000000        0x0 c:/program files (x86)/gnu tools arm embedded/4.8 2014q1/bin/../lib/gcc/arm-none-eabi/4.8.3/armv7e-m\libgcc.a(_arm_fixdfsi.o)
 .data          0x00000000        0x0 c:/program files (x86)/gnu tools arm embedded/4.8 2014q1/bin/../lib/gcc/arm-none-eabi/4.8.3/armv7e-m\libgcc.a(_arm_truncdfsf2.o)
 .bss           0x00000000        0x0 c:/program files (x86)/gnu tools arm embedded/4.8 2014q1/bin/../lib/gcc/arm-none-eabi/4.8.3/armv7e-m\libgcc.a(_arm_truncdfsf2.o)
 .data          0x00000000        0x0 c:/program files (x86)/gnu tools arm embedded/4.8 2014q1/bin/../lib/gcc/arm-none-eabi/4.8.3/armv7e-m\libgcc.a(_arm_addsubsf3.o)
 .bss           0x00000000        0x0 c:/program files (x86)/gnu tools arm embedded/4.8 2014q1/bin/../lib/gcc/arm-none-eabi/4.8.3/armv7e-m\libgcc.a(_arm_addsubsf3.o)
 .data          0x00000000        0x0 c:/program files (x86)/gnu tools arm embedded/4.8 2014q1/bin/../lib/gcc/arm-none-eabi/4.8.3/armv7e-m\libgcc.a(_arm_muldivsf3.o)
 .bss           0x00000000        0x0 c:/program files (x86)/gnu tools arm embedded/4.8 2014q1/bin/../lib/gcc/arm-none-eabi/4.8.3/armv7e-m\libgcc.a(_arm_muldivsf3.o)
 .data          0x00000000        0x0 c:/program files (x86)/gnu tools arm embedded/4.8 2014q1/bin/../lib/gcc/arm-none-eabi/4.8.3/armv7e-m\libgcc.a(_arm_cmpsf2.o)
 .bss           0x00000000        0x0 c:/program files (x86)/gnu tools arm embedded/4.8 2014q1/bin/../lib/gcc/arm-none-eabi/4.8.3/armv7e-m\libgcc.a(_arm_cmpsf2.o)
 .data          0x00000000        0x0 c:/program files (x86)/gnu tools arm embedded/4.8 2014q1/bin/../lib/gcc/arm-none-eabi/4.8.3/armv7e-m\libgcc.a(_arm_fixsfsi.o)
 .bss           0x00000000        0x0 c:/program files (x86)/gnu tools arm embedded/4.8 2014q1/bin/../lib/gcc/arm-none-eabi/4.8.3/armv7e-m\libgcc.a(_arm_fixsfsi.o)
 .data          0x00000000        0x0 c:/program files (x86)/gnu tools arm embedded/4.8 2014q1/bin/../lib/gcc/arm-none-eabi/4.8.3/armv7e-m\libgcc.a(_arm_fixunssfsi.o)
 .bss           0x00000000        0x0 c:/program files (x86)/gnu tools arm embedded/4.8 2014q1/bin/../lib/gcc/arm-none-eabi/4.8.3/armv7e-m\libgcc.a(_arm_fixunssfsi.o)
 .text          0x00000000        0x0 C:\Program Files (x86)\GNU Tools ARM Embedded\4.8 2014q1\arm-none-eabi\lib\armv7e-m\libc.a(lib_a-errno.o)
 .data          0x00000000        0x0 C:\Program Files (x86)\GNU Tools ARM Embedded\4.8 2014q1\arm-none-eabi\lib\armv7e-m\libc.a(lib_a-errno.o)
 .bss           0x00000000        0x0 C:\Program Files (x86)\GNU Tools ARM Embedded\4.8 2014q1\arm-none-eabi\lib\armv7e-m\libc.a(lib_a-errno.o)
 .text          0x00000000        0x0 C:\Program Files (x86)\GNU Tools ARM Embedded\4.8 2014q1\arm-none-eabi\lib\armv7e-m\libc.a(lib_a-impure.o)
 .data          0x00000000        0x0 C:\Program Files (x86)\GNU Tools ARM Embedded\4.8 2014q1\arm-none-eabi\lib\armv7e-m\libc.a(lib_a-impure.o)
 .bss           0x00000000        0x0 C:\Program Files (x86)\GNU Tools ARM Embedded\4.8 2014q1\arm-none-eabi\lib\armv7e-m\libc.a(lib_a-impure.o)
 .rodata._global_impure_ptr
                0x00000000        0x4 C:\Program Files (x86)\GNU Tools ARM Embedded\4.8 2014q1\arm-none-eabi\lib\armv7e-m\libc.a(lib_a-impure.o)
 .data          0x00000000        0x0 C:\Program Files (x86)\GNU Tools ARM Embedded\4.8 2014q1\arm-none-eabi\lib\armv7e-m\libc.a(lib_a-memcpy.o)
 .bss           0x00000000        0x0 C:\Program Files (x86)\GNU Tools ARM Embedded\4.8 2014q1\arm-none-eabi\lib\armv7e-m\libc.a(lib_a-memcpy.o)
 .text          0x00000000        0x0 C:\Program Files (x86)\GNU Tools ARM Embedded\4.8 2014q1\arm-none-eabi\lib\armv7e-m\libc.a(lib_a-sprintf.o)
 .data          0x00000000        0x0 C:\Program Files (x86)\GNU Tools ARM Embedded\4.8 2014q1\arm-none-eabi\lib\armv7e-m\libc.a(lib_a-sprintf.o)
 .bss           0x00000000        0x0 C:\Program Files (x86)\GNU Tools ARM Embedded\4.8 2014q1\arm-none-eabi\lib\armv7e-m\libc.a(lib_a-sprintf.o)
 .text._sprintf_r
                0x00000000       0x44 C:\Program Files (x86)\GNU Tools ARM Embedded\4.8 2014q1\arm-none-eabi\lib\armv7e-m\libc.a(lib_a-sprintf.o)
 .text          0x00000000        0x0 C:\Program Files (x86)\GNU Tools ARM Embedded\4.8 2014q1\arm-none-eabi\lib\armv7e-m\libc.a(lib_a-strlen.o)
 .data          0x00000000        0x0 C:\Program Files (x86)\GNU Tools ARM Embedded\4.8 2014q1\arm-none-eabi\lib\armv7e-m\libc.a(lib_a-strlen.o)
 .bss           0x00000000        0x0 C:\Program Files (x86)\GNU Tools ARM Embedded\4.8 2014q1\arm-none-eabi\lib\armv7e-m\libc.a(lib_a-strlen.o)
 .text          0x00000000        0x0 C:\Program Files (x86)\GNU Tools ARM Embedded\4.8 2014q1\arm-none-eabi\lib\armv7e-m\libc.a(lib_a-svfprintf.o)
 .data          0x00000000        0x0 C:\Program Files (x86)\GNU Tools ARM Embedded\4.8 2014q1\arm-none-eabi\lib\armv7e-m\libc.a(lib_a-svfprintf.o)
 .bss           0x00000000        0x0 C:\Program Files (x86)\GNU Tools ARM Embedded\4.8 2014q1\arm-none-eabi\lib\armv7e-m\libc.a(lib_a-svfprintf.o)
 .text          0x00000000        0x0 C:\Program Files (x86)\GNU Tools ARM Embedded\4.8 2014q1\arm-none-eabi\lib\armv7e-m\libc.a(lib_a-dtoa.o)
 .data          0x00000000        0x0 C:\Program Files (x86)\GNU Tools ARM Embedded\4.8 2014q1\arm-none-eabi\lib\armv7e-m\libc.a(lib_a-dtoa.o)
 .bss           0x00000000        0x0 C:\Program Files (x86)\GNU Tools ARM Embedded\4.8 2014q1\arm-none-eabi\lib\armv7e-m\libc.a(lib_a-dtoa.o)
 .text          0x00000000        0x0 C:\Program Files (x86)\GNU Tools ARM Embedded\4.8 2014q1\arm-none-eabi\lib\armv7e-m\libc.a(lib_a-locale.o)
 .data          0x00000000        0x0 C:\Program Files (x86)\GNU Tools ARM Embedded\4.8 2014q1\arm-none-eabi\lib\armv7e-m\libc.a(lib_a-locale.o)
 .bss           0x00000000        0x0 C:\Program Files (x86)\GNU Tools ARM Embedded\4.8 2014q1\arm-none-eabi\lib\armv7e-m\libc.a(lib_a-locale.o)
 .text._setlocale_r
                0x00000000       0x40 C:\Program Files (x86)\GNU Tools ARM Embedded\4.8 2014q1\arm-none-eabi\lib\armv7e-m\libc.a(lib_a-locale.o)
 .text.__locale_charset
                0x00000000        0x8 C:\Program Files (x86)\GNU Tools ARM Embedded\4.8 2014q1\arm-none-eabi\lib\armv7e-m\libc.a(lib_a-locale.o)
 .text.__locale_mb_cur_max
                0x00000000        0xc C:\Program Files (x86)\GNU Tools ARM Embedded\4.8 2014q1\arm-none-eabi\lib\armv7e-m\libc.a(lib_a-locale.o)
 .text.__locale_msgcharset
                0x00000000        0x8 C:\Program Files (x86)\GNU Tools ARM Embedded\4.8 2014q1\arm-none-eabi\lib\armv7e-m\libc.a(lib_a-locale.o)
 .text.__locale_cjk_lang
                0x00000000        0x4 C:\Program Files (x86)\GNU Tools ARM Embedded\4.8 2014q1\arm-none-eabi\lib\armv7e-m\libc.a(lib_a-locale.o)
 .text.setlocale
                0x00000000       0x10 C:\Program Files (x86)\GNU Tools ARM Embedded\4.8 2014q1\arm-none-eabi\lib\armv7e-m\libc.a(lib_a-locale.o)
 .text.localeconv
                0x00000000        0x8 C:\Program Files (x86)\GNU Tools ARM Embedded\4.8 2014q1\arm-none-eabi\lib\armv7e-m\libc.a(lib_a-locale.o)
 .data.lc_message_charset
                0x00000000       0x20 C:\Program Files (x86)\GNU Tools ARM Embedded\4.8 2014q1\arm-none-eabi\lib\armv7e-m\libc.a(lib_a-locale.o)
 .bss._PathLocale
                0x00000000        0x4 C:\Program Files (x86)\GNU Tools ARM Embedded\4.8 2014q1\arm-none-eabi\lib\armv7e-m\libc.a(lib_a-locale.o)
 .bss.__nlocale_changed
                0x00000000        0x4 C:\Program Files (x86)\GNU Tools ARM Embedded\4.8 2014q1\arm-none-eabi\lib\armv7e-m\libc.a(lib_a-locale.o)
 .bss.__mlocale_changed
                0x00000000        0x4 C:\Program Files (x86)\GNU Tools ARM Embedded\4.8 2014q1\arm-none-eabi\lib\armv7e-m\libc.a(lib_a-locale.o)
 .data.lc_ctype_charset
                0x00000000       0x20 C:\Program Files (x86)\GNU Tools ARM Embedded\4.8 2014q1\arm-none-eabi\lib\armv7e-m\libc.a(lib_a-locale.o)
 .data.__mb_cur_max
                0x00000000        0x4 C:\Program Files (x86)\GNU Tools ARM Embedded\4.8 2014q1\arm-none-eabi\lib\armv7e-m\libc.a(lib_a-locale.o)
 .text          0x00000000        0x0 C:\Program Files (x86)\GNU Tools ARM Embedded\4.8 2014q1\arm-none-eabi\lib\armv7e-m\libc.a(lib_a-mallocr.o)
 .data          0x00000000        0x0 C:\Program Files (x86)\GNU Tools ARM Embedded\4.8 2014q1\arm-none-eabi\lib\armv7e-m\libc.a(lib_a-mallocr.o)
 .bss           0x00000000        0x0 C:\Program Files (x86)\GNU Tools ARM Embedded\4.8 2014q1\arm-none-eabi\lib\armv7e-m\libc.a(lib_a-mallocr.o)
 .text          0x00000000        0x0 C:\Program Files (x86)\GNU Tools ARM Embedded\4.8 2014q1\arm-none-eabi\lib\armv7e-m\libc.a(lib_a-memchr-stub.o)
 .data          0x00000000        0x0 C:\Program Files (x86)\GNU Tools ARM Embedded\4.8 2014q1\arm-none-eabi\lib\armv7e-m\libc.a(lib_a-memchr-stub.o)
 .bss           0x00000000        0x0 C:\Program Files (x86)\GNU Tools ARM Embedded\4.8 2014q1\arm-none-eabi\lib\armv7e-m\libc.a(lib_a-memchr-stub.o)
 .text          0x00000000        0x0 C:\Program Files (x86)\GNU Tools ARM Embedded\4.8 2014q1\arm-none-eabi\lib\armv7e-m\libc.a(lib_a-mlock.o)
 .data          0x00000000        0x0 C:\Program Files (x86)\GNU Tools ARM Embedded\4.8 2014q1\arm-none-eabi\lib\armv7e-m\libc.a(lib_a-mlock.o)
 .bss           0x00000000        0x0 C:\Program Files (x86)\GNU Tools ARM Embedded\4.8 2014q1\arm-none-eabi\lib\armv7e-m\libc.a(lib_a-mlock.o)
 .text          0x00000000        0x0 C:\Program Files (x86)\GNU Tools ARM Embedded\4.8 2014q1\arm-none-eabi\lib\armv7e-m\libc.a(lib_a-mprec.o)
 .data          0x00000000        0x0 C:\Program Files (x86)\GNU Tools ARM Embedded\4.8 2014q1\arm-none-eabi\lib\armv7e-m\libc.a(lib_a-mprec.o)
 .bss           0x00000000        0x0 C:\Program Files (x86)\GNU Tools ARM Embedded\4.8 2014q1\arm-none-eabi\lib\armv7e-m\libc.a(lib_a-mprec.o)
 .text.__s2b    0x00000000       0x98 C:\Program Files (x86)\GNU Tools ARM Embedded\4.8 2014q1\arm-none-eabi\lib\armv7e-m\libc.a(lib_a-mprec.o)
 .text.__ulp    0x00000000       0x40 C:\Program Files (x86)\GNU Tools ARM Embedded\4.8 2014q1\arm-none-eabi\lib\armv7e-m\libc.a(lib_a-mprec.o)
 .text.__b2d    0x00000000       0xb4 C:\Program Files (x86)\GNU Tools ARM Embedded\4.8 2014q1\arm-none-eabi\lib\armv7e-m\libc.a(lib_a-mprec.o)
 .text.__ratio  0x00000000       0x50 C:\Program Files (x86)\GNU Tools ARM Embedded\4.8 2014q1\arm-none-eabi\lib\armv7e-m\libc.a(lib_a-mprec.o)
 .text._mprec_log10
                0x00000000       0x34 C:\Program Files (x86)\GNU Tools ARM Embedded\4.8 2014q1\arm-none-eabi\lib\armv7e-m\libc.a(lib_a-mprec.o)
 .text.__copybits
                0x00000000       0x48 C:\Program Files (x86)\GNU Tools ARM Embedded\4.8 2014q1\arm-none-eabi\lib\armv7e-m\libc.a(lib_a-mprec.o)
 .text.__any_on
                0x00000000       0x60 C:\Program Files (x86)\GNU Tools ARM Embedded\4.8 2014q1\arm-none-eabi\lib\armv7e-m\libc.a(lib_a-mprec.o)
 .rodata.__mprec_tinytens
                0x00000000       0x28 C:\Program Files (x86)\GNU Tools ARM Embedded\4.8 2014q1\arm-none-eabi\lib\armv7e-m\libc.a(lib_a-mprec.o)
 .text          0x00000000        0x0 C:\Program Files (x86)\GNU Tools ARM Embedded\4.8 2014q1\arm-none-eabi\lib\armv7e-m\libc.a(lib_a-sbrkr.o)
 .data          0x00000000        0x0 C:\Program Files (x86)\GNU Tools ARM Embedded\4.8 2014q1\arm-none-eabi\lib\armv7e-m\libc.a(lib_a-sbrkr.o)
 .bss           0x00000000        0x0 C:\Program Files (x86)\GNU Tools ARM Embedded\4.8 2014q1\arm-none-eabi\lib\armv7e-m\libc.a(lib_a-sbrkr.o)
 .text          0x00000000      0x21c C:\Program Files (x86)\GNU Tools ARM Embedded\4.8 2014q1\arm-none-eabi\lib\armv7e-m\libc.a(lib_a-strcmp.o)
 .data          0x00000000        0x0 C:\Program Files (x86)\GNU Tools ARM Embedded\4.8 2014q1\arm-none-eabi\lib\armv7e-m\libc.a(lib_a-strcmp.o)
 .bss           0x00000000        0x0 C:\Program Files (x86)\GNU Tools ARM Embedded\4.8 2014q1\arm-none-eabi\lib\armv7e-m\libc.a(lib_a-strcmp.o)
 .ARM.attributes
                0x00000000       0x1c C:\Program Files (x86)\GNU Tools ARM Embedded\4.8 2014q1\arm-none-eabi\lib\armv7e-m\libc.a(lib_a-strcmp.o)
 .text          0x00000000        0x0 C:\Program Files (x86)\GNU Tools ARM Embedded\4.8 2014q1\arm-none-eabi\lib\armv7e-m\libc.a(lib_a-svfiprintf.o)
 .data          0x00000000        0x0 C:\Program Files (x86)\GNU Tools ARM Embedded\4.8 2014q1\arm-none-eabi\lib\armv7e-m\libc.a(lib_a-svfiprintf.o)
 .bss           0x00000000        0x0 C:\Program Files (x86)\GNU Tools ARM Embedded\4.8 2014q1\arm-none-eabi\lib\armv7e-m\libc.a(lib_a-svfiprintf.o)
 .text._svfiprintf_r
                0x00000000      0xb3c C:\Program Files (x86)\GNU Tools ARM Embedded\4.8 2014q1\arm-none-eabi\lib\armv7e-m\libc.a(lib_a-svfiprintf.o)
 .rodata.zeroes.6704
                0x00000000       0x10 C:\Program Files (x86)\GNU Tools ARM Embedded\4.8 2014q1\arm-none-eabi\lib\armv7e-m\libc.a(lib_a-svfiprintf.o)
 .rodata.str1.4
                0x00000000       0x30 C:\Program Files (x86)\GNU Tools ARM Embedded\4.8 2014q1\arm-none-eabi\lib\armv7e-m\libc.a(lib_a-svfiprintf.o)
 .rodata.blanks.6703
                0x00000000       0x10 C:\Program Files (x86)\GNU Tools ARM Embedded\4.8 2014q1\arm-none-eabi\lib\armv7e-m\libc.a(lib_a-svfiprintf.o)
 .text          0x00000000        0x0 C:\Program Files (x86)\GNU Tools ARM Embedded\4.8 2014q1\arm-none-eabi\lib\armv7e-m\libc.a(lib_a-callocr.o)
 .data          0x00000000        0x0 C:\Program Files (x86)\GNU Tools ARM Embedded\4.8 2014q1\arm-none-eabi\lib\armv7e-m\libc.a(lib_a-callocr.o)
 .bss           0x00000000        0x0 C:\Program Files (x86)\GNU Tools ARM Embedded\4.8 2014q1\arm-none-eabi\lib\armv7e-m\libc.a(lib_a-callocr.o)
 .text          0x00000000        0x0 C:\Program Files (x86)\GNU Tools ARM Embedded\4.8 2014q1\arm-none-eabi\lib\armv7e-m\libc.a(lib_a-freer.o)
 .data          0x00000000        0x0 C:\Program Files (x86)\GNU Tools ARM Embedded\4.8 2014q1\arm-none-eabi\lib\armv7e-m\libc.a(lib_a-freer.o)
 .bss           0x00000000        0x0 C:\Program Files (x86)\GNU Tools ARM Embedded\4.8 2014q1\arm-none-eabi\lib\armv7e-m\libc.a(lib_a-freer.o)
 .text          0x00000000        0x0 C:\Program Files (x86)\GNU Tools ARM Embedded\4.8 2014q1\arm-none-eabi\lib\armv7e-m\libc.a(lib_a-memmove.o)
 .data          0x00000000        0x0 C:\Program Files (x86)\GNU Tools ARM Embedded\4.8 2014q1\arm-none-eabi\lib\armv7e-m\libc.a(lib_a-memmove.o)
 .bss           0x00000000        0x0 C:\Program Files (x86)\GNU Tools ARM Embedded\4.8 2014q1\arm-none-eabi\lib\armv7e-m\libc.a(lib_a-memmove.o)
 .text          0x00000000        0x0 C:\Program Files (x86)\GNU Tools ARM Embedded\4.8 2014q1\arm-none-eabi\lib\armv7e-m\libc.a(lib_a-memset.o)
 .data          0x00000000        0x0 C:\Program Files (x86)\GNU Tools ARM Embedded\4.8 2014q1\arm-none-eabi\lib\armv7e-m\libc.a(lib_a-memset.o)
 .bss           0x00000000        0x0 C:\Program Files (x86)\GNU Tools ARM Embedded\4.8 2014q1\arm-none-eabi\lib\armv7e-m\libc.a(lib_a-memset.o)
 .text          0x00000000        0x0 C:\Program Files (x86)\GNU Tools ARM Embedded\4.8 2014q1\arm-none-eabi\lib\armv7e-m\libc.a(lib_a-reallocr.o)
 .data          0x00000000        0x0 C:\Program Files (x86)\GNU Tools ARM Embedded\4.8 2014q1\arm-none-eabi\lib\armv7e-m\libc.a(lib_a-reallocr.o)
 .bss           0x00000000        0x0 C:\Program Files (x86)\GNU Tools ARM Embedded\4.8 2014q1\arm-none-eabi\lib\armv7e-m\libc.a(lib_a-reallocr.o)
 .text          0x00000000        0x0 C:\Program Files (x86)\GNU Tools ARM Embedded\4.8 2014q1\arm-none-eabi\lib\armv7e-m\libc.a(lib_a-reent.o)
 .data          0x00000000        0x0 C:\Program Files (x86)\GNU Tools ARM Embedded\4.8 2014q1\arm-none-eabi\lib\armv7e-m\libc.a(lib_a-reent.o)
 .bss           0x00000000        0x0 C:\Program Files (x86)\GNU Tools ARM Embedded\4.8 2014q1\arm-none-eabi\lib\armv7e-m\libc.a(lib_a-reent.o)
 .text.cleanup_glue
                0x00000000       0x1c C:\Program Files (x86)\GNU Tools ARM Embedded\4.8 2014q1\arm-none-eabi\lib\armv7e-m\libc.a(lib_a-reent.o)
 .text._reclaim_reent
                0x00000000       0x90 C:\Program Files (x86)\GNU Tools ARM Embedded\4.8 2014q1\arm-none-eabi\lib\armv7e-m\libc.a(lib_a-reent.o)
 .data          0x00000000        0x0 c:/program files (x86)/gnu tools arm embedded/4.8 2014q1/bin/../lib/gcc/arm-none-eabi/4.8.3/armv7e-m\libgcc.a(_aeabi_uldivmod.o)
 .bss           0x00000000        0x0 c:/program files (x86)/gnu tools arm embedded/4.8 2014q1/bin/../lib/gcc/arm-none-eabi/4.8.3/armv7e-m\libgcc.a(_aeabi_uldivmod.o)
 .data          0x00000000        0x0 c:/program files (x86)/gnu tools arm embedded/4.8 2014q1/bin/../lib/gcc/arm-none-eabi/4.8.3/armv7e-m\libgcc.a(bpabi.o)
 .bss           0x00000000        0x0 c:/program files (x86)/gnu tools arm embedded/4.8 2014q1/bin/../lib/gcc/arm-none-eabi/4.8.3/armv7e-m\libgcc.a(bpabi.o)
 .data          0x00000000        0x0 c:/program files (x86)/gnu tools arm embedded/4.8 2014q1/bin/../lib/gcc/arm-none-eabi/4.8.3/armv7e-m\libgcc.a(_dvmd_tls.o)
 .bss           0x00000000        0x0 c:/program files (x86)/gnu tools arm embedded/4.8 2014q1/bin/../lib/gcc/arm-none-eabi/4.8.3/armv7e-m\libgcc.a(_dvmd_tls.o)
 .data          0x00000000        0x0 c:/program files (x86)/gnu tools arm embedded/4.8 2014q1/bin/../lib/gcc/arm-none-eabi/4.8.3/armv7e-m\libgcc.a(_divdi3.o)
 .bss           0x00000000        0x0 c:/program files (x86)/gnu tools arm embedded/4.8 2014q1/bin/../lib/gcc/arm-none-eabi/4.8.3/armv7e-m\libgcc.a(_divdi3.o)
 .ARM.extab     0x00000000        0x0 c:/program files (x86)/gnu tools arm embedded/4.8 2014q1/bin/../lib/gcc/arm-none-eabi/4.8.3/armv7e-m\libgcc.a(_divdi3.o)
 .data          0x00000000        0x0 c:/program files (x86)/gnu tools arm embedded/4.8 2014q1/bin/../lib/gcc/arm-none-eabi/4.8.3/armv7e-m\libgcc.a(_udivdi3.o)
 .bss           0x00000000        0x0 c:/program files (x86)/gnu tools arm embedded/4.8 2014q1/bin/../lib/gcc/arm-none-eabi/4.8.3/armv7e-m\libgcc.a(_udivdi3.o)
 .ARM.extab     0x00000000        0x0 c:/program files (x86)/gnu tools arm embedded/4.8 2014q1/bin/../lib/gcc/arm-none-eabi/4.8.3/armv7e-m\libgcc.a(_udivdi3.o)

Memory Configuration

Name             Origin             Length             Attributes
rom              0x08000000         0x00100000         xr
ram              0x20000000         0x00020000         xrw
ram1             0x10000000         0x00010000         xrw
*default*        0x00000000         0xffffffff

Linker script and memory map

                0x20020000                _eram = 0x20020000

.text           0x08000000    0x40a3c
 *(.isr_vector)
 .isr_vector    0x08000000      0x188 ..\obj\startup_stm32f4xx.o
                0x08000000                g_pfnVectors
 *(.text*)
 .text.Dynamixel_USART2_Init
                0x08000188       0xa4 ..\obj\bw_dynamixel_ax_12a.o
                0x08000188                Dynamixel_USART2_Init
 .text.USART_TimeOut
                0x0800022c       0x1c ..\obj\bw_dynamixel_ax_12a.o
                0x0800022c                USART_TimeOut
 .text.Dynamx_Send
                0x08000248       0xa0 ..\obj\bw_dynamixel_ax_12a.o
                0x08000248                Dynamx_Send
 .text.Dyna_Actuate
                0x080002e8       0xd0 ..\obj\bw_dynamixel_ax_12a.o
                0x080002e8                Dyna_Actuate
 .text.kirimData
                0x080003b8       0x24 ..\obj\bw_dynamixel_ax_12a.o
                0x080003b8                kirimData
 .text.DynamixelDrive
                0x080003dc      0x38c ..\obj\bw_dynamixel_ax_12a.o
                0x080003dc                DynamixelDrive
 .text.USART2_IRQHandler
                0x08000768       0x68 ..\obj\bw_dynamixel_ax_12a.o
                0x08000768                USART2_IRQHandler
 .text.syncwrite
                0x080007d0      0x170 ..\obj\bw_dynamixel_ax_12a.o
                0x080007d0                syncwrite
 .text.static_syncwrite
                0x08000940       0x58 ..\obj\bw_dynamixel_ax_12a.o
                0x08000940                static_syncwrite
 .text.TIM6_DAC_IRQHandler
                0x08000998      0x198 ..\obj\bw_dynamixel_ax_12a.o
                0x08000998                TIM6_DAC_IRQHandler
 .text.UART4_Init
                0x08000b30       0xa0 ..\obj\bw_usart_comm.o
                0x08000b30                UART4_Init
 .text.UART4_IRQHandler
                0x08000bd0      0x13c ..\obj\bw_usart_comm.o
                0x08000bd0                UART4_IRQHandler
 .text.USART1_Init_Tracer
                0x08000d0c       0x98 ..\obj\bw_usart_comm.o
                0x08000d0c                USART1_Init_Tracer
 .text.USART1_IRQHandler
                0x08000da4      0x17c ..\obj\bw_usart_comm.o
                0x08000da4                USART1_IRQHandler
 .text.USART6_IRQHandler
                0x08000f20       0x14 ..\obj\bw_usart_comm.o
                0x08000f20                USART6_IRQHandler
 .text.Sendto_PC
                0x08000f34        0x8 ..\obj\bw_usart_comm.o
                0x08000f34                Sendto_PC
 .text.TCS3200_Transmit
                0x08000f3c       0x50 ..\obj\bw_usart_comm.o
                0x08000f3c                TCS3200_Transmit
 .text.Display_FlameSense
                0x08000f8c      0x294 ..\obj\bw_usart_comm.o
                0x08000f8c                Display_FlameSense
 .text.Flame_Rank_Display
                0x08001220       0x78 ..\obj\bw_usart_comm.o
                0x08001220                Flame_Rank_Display
 .text.BW_I2C_LCD_Init
                0x08001298       0x90 ..\obj\bw_i2c_lcd.o
                0x08001298                BW_I2C_LCD_Init
 .text.I2C1_TimeOut_LCD
                0x08001328       0x38 ..\obj\bw_i2c_lcd.o
                0x08001328                I2C1_TimeOut_LCD
 .text.I2C1_WriteByte_LCD
                0x08001360       0xdc ..\obj\bw_i2c_lcd.o
                0x08001360                I2C1_WriteByte_LCD
 .text.PCF8574_WriteI2C
                0x0800143c       0x2c ..\obj\bw_i2c_lcd.o
                0x0800143c                PCF8574_WriteI2C
 .text.PCF8574_Send_Nibble
                0x08001468       0x20 ..\obj\bw_i2c_lcd.o
                0x08001468                PCF8574_Send_Nibble
 .text.PCF8574_Send
                0x08001488       0x18 ..\obj\bw_i2c_lcd.o
                0x08001488                PCF8574_Send
 .text.PCF8574_Command
                0x080014a0        0xc ..\obj\bw_i2c_lcd.o
                0x080014a0                PCF8574_Command
 .text.PCF8574_Write
                0x080014ac        0xc ..\obj\bw_i2c_lcd.o
                0x080014ac                PCF8574_Write
 .text.PCF8574_LCD_putch
                0x080014b8       0x10 ..\obj\bw_i2c_lcd.o
                0x080014b8                PCF8574_LCD_putch
 .text.PCF8574_LCD_CursorOff
                0x080014c8       0x1c ..\obj\bw_i2c_lcd.o
                0x080014c8                PCF8574_LCD_CursorOff
 .text.PCF8574_LCD_DisplayOn
                0x080014e4       0x1c ..\obj\bw_i2c_lcd.o
                0x080014e4                PCF8574_LCD_DisplayOn
 .text.PCF8574_LCD_gotoxy
                0x08001500       0x48 ..\obj\bw_i2c_lcd.o
                0x08001500                PCF8574_LCD_gotoxy
 .text.PCF8574_LCD_Clear
                0x08001548       0x14 ..\obj\bw_i2c_lcd.o
                0x08001548                PCF8574_LCD_Clear
 .text.PCF8574_begin_LCD
                0x0800155c       0xb8 ..\obj\bw_i2c_lcd.o
                0x0800155c                PCF8574_begin_LCD
 .text.BW_Read_I2C2
                0x08001614      0x1d8 ..\obj\BW_I2C_EEPROM.o
                0x08001614                BW_Read_I2C2
 .text.BW_Write_I2C_EEPROM
                0x080017ec      0x168 ..\obj\BW_I2C_EEPROM.o
                0x080017ec                BW_Write_I2C_EEPROM
 .text.Save_CMPS12_DATA
                0x08001954      0x5d0 ..\obj\BW_I2C_EEPROM.o
                0x08001954                Save_CMPS12_DATA
 .text.CAT_CALIBRATION
                0x08001f24       0x98 ..\obj\BW_I2C_EEPROM.o
                0x08001f24                CAT_CALIBRATION
 .text.Load_CMPS_DATA
                0x08001fbc      0x1b4 ..\obj\BW_I2C_EEPROM.o
                0x08001fbc                Load_CMPS_DATA
 .text.Load_CAT_MIN_DATA
                0x08002170       0x24 ..\obj\BW_I2C_EEPROM.o
                0x08002170                Load_CAT_MIN_DATA
 .text.display_EEPROM_DATA
                0x08002194      0x1dc ..\obj\BW_I2C_EEPROM.o
                0x08002194                display_EEPROM_DATA
 .text.copy_EEPROM_data
                0x08002370      0x1c0 ..\obj\BW_I2C_EEPROM.o
                0x08002370                copy_EEPROM_data
 .text.BW_COPY_TRACER_DATA
                0x08002530       0x60 ..\obj\BW_I2C_EEPROM.o
                0x08002530                BW_COPY_TRACER_DATA
 .text.BW_LOAD_TRACER_DATA
                0x08002590       0x68 ..\obj\BW_I2C_EEPROM.o
                0x08002590                BW_LOAD_TRACER_DATA
 .text.USART_DeInit
                0x080025f8       0xbc ..\obj\stm32f4xx_usart.o
                0x080025f8                USART_DeInit
 .text.USART_Init
                0x080026b4       0xd0 ..\obj\stm32f4xx_usart.o
                0x080026b4                USART_Init
 .text.USART_Cmd
                0x08002784       0x1c ..\obj\stm32f4xx_usart.o
                0x08002784                USART_Cmd
 .text.USART_SendData
                0x080027a0        0x8 ..\obj\stm32f4xx_usart.o
                0x080027a0                USART_SendData
 .text.USART_ITConfig
                0x080027a8       0x38 ..\obj\stm32f4xx_usart.o
                0x080027a8                USART_ITConfig
 .text.USART_GetFlagStatus
                0x080027e0        0xc ..\obj\stm32f4xx_usart.o
                0x080027e0                USART_GetFlagStatus
 .text.USART_ClearFlag
                0x080027ec        0x8 ..\obj\stm32f4xx_usart.o
                0x080027ec                USART_ClearFlag
 .text.USART_GetITStatus
                0x080027f4       0x48 ..\obj\stm32f4xx_usart.o
                0x080027f4                USART_GetITStatus
 *fill*         0x0800283c        0x4 
 .text.generate_movement_data
                0x08002840      0x1a0 ..\obj\bw_hexapod_cmd.o
                0x08002840                generate_movement_data
 .text.servo_lin_func
                0x080029e0       0x4c ..\obj\bw_hexapod_cmd.o
                0x080029e0                servo_lin_func
 *fill*         0x08002a2c        0x4 
 .text.inv_kine
                0x08002a30      0x218 ..\obj\bw_hexapod_cmd.o
                0x08002a30                inv_kine
 .text.mov_static
                0x08002c48       0x9c ..\obj\bw_hexapod_cmd.o
                0x08002c48                mov_static
 .text.mov_fwd_5cm
                0x08002ce4      0x638 ..\obj\bw_hexapod_cmd.o
                0x08002ce4                mov_fwd_5cm
 .text.mov_fwd_3cm
                0x0800331c      0x470 ..\obj\bw_hexapod_cmd.o
                0x0800331c                mov_fwd_3cm
 .text.mov_bwd  0x0800378c      0x4b8 ..\obj\bw_hexapod_cmd.o
                0x0800378c                mov_bwd
 .text.mov_bwd_3cm
                0x08003c44      0x474 ..\obj\bw_hexapod_cmd.o
                0x08003c44                mov_bwd_3cm
 .text.mov_rot_right
                0x080040b8      0x638 ..\obj\bw_hexapod_cmd.o
                0x080040b8                mov_rot_right
 .text.mov_rot_left
                0x080046f0      0x638 ..\obj\bw_hexapod_cmd.o
                0x080046f0                mov_rot_left
 .text.mov_deflect_right
                0x08004d28      0x25c ..\obj\bw_hexapod_cmd.o
                0x08004d28                mov_deflect_right
 .text.mov_deflect_left
                0x08004f84      0x25c ..\obj\bw_hexapod_cmd.o
                0x08004f84                mov_deflect_left
 .text.RotSwitch_Init
                0x080051e0       0x88 ..\obj\bw_rotary_switch.o
                0x080051e0                RotSwitch_Init
 .text.RotSwitch_Sampling
                0x08005268       0xc8 ..\obj\bw_rotary_switch.o
                0x08005268                RotSwitch_Sampling
 .text.Display_MODE
                0x08005330      0x160 ..\obj\bw_rotary_switch.o
                0x08005330                Display_MODE
 .text.StartButton_Init
                0x08005490       0x30 ..\obj\bw_user_interface.o
                0x08005490                StartButton_Init
 .text.UserButton_Init
                0x080054c0       0x58 ..\obj\bw_user_interface.o
                0x080054c0                UserButton_Init
 .text.Button_Init
                0x08005518        0xc ..\obj\bw_user_interface.o
                0x08005518                Button_Init
 .text.Buzzer_Init
                0x08005524       0x30 ..\obj\bw_user_interface.o
                0x08005524                Buzzer_Init
 .text.BW_Buzz  0x08005554        0x4 ..\obj\bw_user_interface.o
                0x08005554                BW_Buzz
 .text.FIRE_LED_Init
                0x08005558       0x30 ..\obj\bw_user_interface.o
                0x08005558                FIRE_LED_Init
 .text.SND_ACT_LED_Init
                0x08005588       0x30 ..\obj\bw_user_interface.o
                0x08005588                SND_ACT_LED_Init
 .text.BW_LED_Interrupt_Init
                0x080055b8       0x68 ..\obj\bw_user_interface.o
                0x080055b8                BW_LED_Interrupt_Init
 .text.TIM5_IRQHandler
                0x08005620       0xcc ..\obj\bw_user_interface.o
                0x08005620                TIM5_IRQHandler
 .text.Default_Handler
                0x080056ec        0x4 ..\obj\startup_stm32f4xx.o
                0x080056ec                RTC_Alarm_IRQHandler
                0x080056ec                HASH_RNG_IRQHandler
                0x080056ec                EXTI2_IRQHandler
                0x080056ec                TIM8_CC_IRQHandler
                0x080056ec                DebugMon_Handler
                0x080056ec                TIM1_CC_IRQHandler
                0x080056ec                DMA2_Stream5_IRQHandler
                0x080056ec                HardFault_Handler
                0x080056ec                DMA1_Stream5_IRQHandler
                0x080056ec                PVD_IRQHandler
                0x080056ec                SDIO_IRQHandler
                0x080056ec                TAMP_STAMP_IRQHandler
                0x080056ec                PendSV_Handler
                0x080056ec                NMI_Handler
                0x080056ec                CAN2_RX1_IRQHandler
                0x080056ec                EXTI3_IRQHandler
                0x080056ec                TIM8_TRG_COM_TIM14_IRQHandler
                0x080056ec                TIM1_UP_TIM10_IRQHandler
                0x080056ec                TIM8_UP_TIM13_IRQHandler
                0x080056ec                I2C3_ER_IRQHandler
                0x080056ec                EXTI0_IRQHandler
                0x080056ec                I2C2_EV_IRQHandler
                0x080056ec                DMA1_Stream2_IRQHandler
                0x080056ec                CAN1_RX0_IRQHandler
                0x080056ec                FPU_IRQHandler
                0x080056ec                OTG_HS_WKUP_IRQHandler
                0x080056ec                UsageFault_Handler
                0x080056ec                CAN2_SCE_IRQHandler
                0x080056ec                DMA2_Stream2_IRQHandler
                0x080056ec                SPI1_IRQHandler
                0x080056ec                TIM1_BRK_TIM9_IRQHandler
                0x080056ec                DCMI_IRQHandler
                0x080056ec                CAN2_RX0_IRQHandler
                0x080056ec                DMA2_Stream3_IRQHandler
                0x080056ec                CRYP_IRQHandler
                0x080056ec                CAN1_RX1_IRQHandler
                0x080056ec                UART5_IRQHandler
                0x080056ec                DMA2_Stream0_IRQHandler
                0x080056ec                TIM4_IRQHandler
                0x080056ec                I2C1_EV_IRQHandler
                0x080056ec                DMA1_Stream6_IRQHandler
                0x080056ec                DMA1_Stream1_IRQHandler
                0x080056ec                RCC_IRQHandler
                0x080056ec                TIM8_BRK_TIM12_IRQHandler
                0x080056ec                EXTI15_10_IRQHandler
                0x080056ec                ADC_IRQHandler
                0x080056ec                DMA1_Stream7_IRQHandler
                0x080056ec                TIM7_IRQHandler
                0x080056ec                CAN2_TX_IRQHandler
                0x080056ec                DMA2_Stream7_IRQHandler
                0x080056ec                I2C3_EV_IRQHandler
                0x080056ec                EXTI9_5_IRQHandler
                0x080056ec                RTC_WKUP_IRQHandler
                0x080056ec                ETH_WKUP_IRQHandler
                0x080056ec                SPI2_IRQHandler
                0x080056ec                OTG_HS_EP1_IN_IRQHandler
                0x080056ec                MemManage_Handler
                0x080056ec                DMA1_Stream0_IRQHandler
                0x080056ec                CAN1_TX_IRQHandler
                0x080056ec                SVC_Handler
                0x080056ec                EXTI4_IRQHandler
                0x080056ec                FSMC_IRQHandler
                0x080056ec                ETH_IRQHandler
                0x080056ec                OTG_HS_EP1_OUT_IRQHandler
                0x080056ec                WWDG_IRQHandler
                0x080056ec                OTG_FS_WKUP_IRQHandler
                0x080056ec                TIM1_TRG_COM_TIM11_IRQHandler
                0x080056ec                OTG_HS_IRQHandler
                0x080056ec                EXTI1_IRQHandler
                0x080056ec                I2C2_ER_IRQHandler
                0x080056ec                DMA2_Stream1_IRQHandler
                0x080056ec                CAN1_SCE_IRQHandler
                0x080056ec                FLASH_IRQHandler
                0x080056ec                DMA2_Stream4_IRQHandler
                0x080056ec                BusFault_Handler
                0x080056ec                OTG_FS_IRQHandler
                0x080056ec                SPI3_IRQHandler
                0x080056ec                DMA1_Stream4_IRQHandler
                0x080056ec                I2C1_ER_IRQHandler
                0x080056ec                DMA2_Stream6_IRQHandler
                0x080056ec                DMA1_Stream3_IRQHandler
 .text.Default_Reset_Handler
                0x080056f0       0x58 ..\obj\startup_stm32f4xx.o
                0x080056f0                Default_Reset_Handler
                0x080056f0                Reset_Handler
 .text.BW_Initialization
                0x08005748      0x1f8 ..\obj\main.o
                0x08005748                BW_Initialization
 .text.main     0x08005940      0x628 ..\obj\main.o
                0x08005940                main
 .text.RCC_GetClocksFreq
                0x08005f68       0xb8 ..\obj\stm32f4xx_rcc.o
                0x08005f68                RCC_GetClocksFreq
 .text.RCC_AHB1PeriphClockCmd
                0x08006020       0x1c ..\obj\stm32f4xx_rcc.o
                0x08006020                RCC_AHB1PeriphClockCmd
 .text.RCC_APB1PeriphClockCmd
                0x0800603c       0x1c ..\obj\stm32f4xx_rcc.o
                0x0800603c                RCC_APB1PeriphClockCmd
 .text.RCC_APB2PeriphClockCmd
                0x08006058       0x1c ..\obj\stm32f4xx_rcc.o
                0x08006058                RCC_APB2PeriphClockCmd
 .text.RCC_APB1PeriphResetCmd
                0x08006074       0x1c ..\obj\stm32f4xx_rcc.o
                0x08006074                RCC_APB1PeriphResetCmd
 .text.RCC_APB2PeriphResetCmd
                0x08006090       0x1c ..\obj\stm32f4xx_rcc.o
                0x08006090                RCC_APB2PeriphResetCmd
 .text.USART3_Init
                0x080060ac       0xa0 ..\obj\bw_ping_receiver.o
                0x080060ac                USART3_Init
 .text.USART3_PutChar
                0x0800614c       0x34 ..\obj\bw_ping_receiver.o
                0x0800614c                USART3_PutChar
 .text.USART3_IRQHandler
                0x08006180      0x22c ..\obj\bw_ping_receiver.o
                0x08006180                USART3_IRQHandler
 .text.Display_Ping_Status
                0x080063ac      0x118 ..\obj\bw_ping_receiver.o
                0x080063ac                Display_Ping_Status
 .text.Display_Sharp_Status
                0x080064c4       0xa8 ..\obj\bw_ping_receiver.o
                0x080064c4                Display_Sharp_Status
 .text.Send_Ping_Status
                0x0800656c       0x50 ..\obj\bw_ping_receiver.o
                0x0800656c                Send_Ping_Status
 .text.BW_Sound_Activation_Init
                0x080065bc       0x2c ..\obj\bw_sound_activation.o
                0x080065bc                BW_Sound_Activation_Init
 .text.Pump_GPIOInit
                0x080065e8       0x30 ..\obj\bw_extinguisher.o
                0x080065e8                Pump_GPIOInit
 .text.BW_Extinguisher_Init
                0x08006618       0x18 ..\obj\bw_extinguisher.o
                0x08006618                BW_Extinguisher_Init
 .text.DynaExt  0x08006630       0x14 ..\obj\bw_extinguisher.o
                0x08006630                DynaExt
 .text.CO2_LAUNCHER
                0x08006644       0x28 ..\obj\bw_extinguisher.o
                0x08006644                CO2_LAUNCHER
 .text.TEST_CO2_EXTI
                0x0800666c       0x20 ..\obj\bw_extinguisher.o
                0x0800666c                TEST_CO2_EXTI
 .text.BW_HydroPump_V10
                0x0800668c       0x74 ..\obj\bw_extinguisher.o
                0x0800668c                BW_HydroPump_V10
 .text.BW_Pump_R4
                0x08006700      0x190 ..\obj\bw_extinguisher.o
                0x08006700                BW_Pump_R4
 .text.BW_CO2_TEST
                0x08006890       0xc8 ..\obj\bw_extinguisher.o
                0x08006890                BW_CO2_TEST
 .text.PushTo_Burst
                0x08006958       0xb8 ..\obj\bw_extinguisher.o
                0x08006958                PushTo_Burst
 .text.ADC_Init
                0x08006a10       0x50 ..\obj\stm32f4xx_adc.o
                0x08006a10                ADC_Init
 .text.ADC_CommonInit
                0x08006a60       0x2c ..\obj\stm32f4xx_adc.o
                0x08006a60                ADC_CommonInit
 .text.ADC_Cmd  0x08006a8c       0x18 ..\obj\stm32f4xx_adc.o
                0x08006a8c                ADC_Cmd
 .text.ADC_RegularChannelConfig
                0x08006aa4       0x94 ..\obj\stm32f4xx_adc.o
                0x08006aa4                ADC_RegularChannelConfig
 .text.ADC_SoftwareStartConv
                0x08006b38        0xc ..\obj\stm32f4xx_adc.o
                0x08006b38                ADC_SoftwareStartConv
 .text.ADC_ContinuousModeCmd
                0x08006b44       0x18 ..\obj\stm32f4xx_adc.o
                0x08006b44                ADC_ContinuousModeCmd
 .text.ADC_GetConversionValue
                0x08006b5c        0x8 ..\obj\stm32f4xx_adc.o
                0x08006b5c                ADC_GetConversionValue
 .text.GetBumper
                0x08006b64       0x28 ..\obj\bw_bumper.o
                0x08006b64                GetBumper
 .text.Display_Cat_VAR
                0x08006b8c       0x9c ..\obj\bw_bumper.o
                0x08006b8c                Display_Cat_VAR
 .text.BW_Home_Detection_check
                0x08006c28      0x3ac ..\obj\bw2017_algorithm.o
                0x08006c28                BW_Home_Detection_check
 .text.Cat_Avoider
                0x08006fd4      0x1f4 ..\obj\bw2017_algorithm.o
                0x08006fd4                Cat_Avoider
 .text.Cat_Avoider_Handler
                0x080071c8       0xc4 ..\obj\bw2017_algorithm.o
                0x080071c8                Cat_Avoider_Handler
 .text.TIM2_IRQHandler
                0x0800728c       0x34 ..\obj\bw2017_algorithm.o
                0x0800728c                TIM2_IRQHandler
 .text.FlameSense_PID_Init
                0x080072c0       0x40 ..\obj\bw2017_algorithm.o
                0x080072c0                FlameSense_PID_Init
 .text.UVLock_Refresh
                0x08007300       0x20 ..\obj\bw2017_algorithm.o
                0x08007300                UVLock_Refresh
 .text.Nav_2_To_1A
                0x08007320       0xb4 ..\obj\bw2017_algorithm.o
                0x08007320                Nav_2_To_1A
 .text.BW_COMPASS_CORRECTION
                0x080073d4     0x2554 ..\obj\bw2017_algorithm.o
                0x080073d4                BW_COMPASS_CORRECTION
 .text.RoomDetector
                0x08009928      0x9fc ..\obj\bw2017_algorithm.o
                0x08009928                RoomDetector
 .text.Sensor_Menu
                0x0800a324       0xd4 ..\obj\bw2017_algorithm.o
                0x0800a324                Sensor_Menu
 .text.HomeCircle_Detector
                0x0800a3f8       0x14 ..\obj\bw2017_algorithm.o
                0x0800a3f8                HomeCircle_Detector
 .text.TCSlave_Check
                0x0800a40c       0xdc ..\obj\bw2017_algorithm.o
                0x0800a40c                TCSlave_Check
 .text.BW_Home_Detection_2017_3
                0x0800a4e8      0x758 ..\obj\bw2017_algorithm.o
                0x0800a4e8                BW_Home_Detection_2017_3
 .text.curve_right_counter
                0x0800ac40      0x908 ..\obj\bw2017_algorithm.o
                0x0800ac40                curve_right_counter
 .text.curve_left_counter
                0x0800b548      0x924 ..\obj\bw2017_algorithm.o
                0x0800b548                curve_left_counter
 .text.PID_follow_right_counter
                0x0800be6c      0x2e4 ..\obj\bw2017_algorithm.o
                0x0800be6c                PID_follow_right_counter
 .text.follow_right_counter
                0x0800c150       0x44 ..\obj\bw2017_algorithm.o
                0x0800c150                follow_right_counter
 .text.PID_follow_left_counter
                0x0800c194      0x5f0 ..\obj\bw2017_algorithm.o
                0x0800c194                PID_follow_left_counter
 .text.follow_left_counter
                0x0800c784       0xc8 ..\obj\bw2017_algorithm.o
                0x0800c784                follow_left_counter
 .text.PID_FollowTracer_Right
                0x0800c84c      0x65c ..\obj\bw2017_algorithm.o
                0x0800c84c                PID_FollowTracer_Right
 .text.PID_FollowTracer_Left
                0x0800cea8      0x608 ..\obj\bw2017_algorithm.o
                0x0800cea8                PID_FollowTracer_Left
 .text.PID_FollowCarpet_Right
                0x0800d4b0      0x604 ..\obj\bw2017_algorithm.o
                0x0800d4b0                PID_FollowCarpet_Right
 .text.FollowCarpet_Right
                0x0800dab4      0x1c0 ..\obj\bw2017_algorithm.o
                0x0800dab4                FollowCarpet_Right
 .text.PID_FollowCarpet_Left
                0x0800dc74      0x5dc ..\obj\bw2017_algorithm.o
                0x0800dc74                PID_FollowCarpet_Left
 .text.FollowCarpet_Left
                0x0800e250      0x1dc ..\obj\bw2017_algorithm.o
                0x0800e250                FollowCarpet_Left
 .text.PID_FollowHome_Right
                0x0800e42c      0x34c ..\obj\bw2017_algorithm.o
                0x0800e42c                PID_FollowHome_Right
 .text.PID_FollowHome_Left
                0x0800e778      0x310 ..\obj\bw2017_algorithm.o
                0x0800e778                PID_FollowHome_Left
 .text.FollowTracer_Right
                0x0800ea88      0x148 ..\obj\bw2017_algorithm.o
                0x0800ea88                FollowTracer_Right
 .text.Nav_HallwaySC_To_3
                0x0800ebd0       0xec ..\obj\bw2017_algorithm.o
                0x0800ebd0                Nav_HallwaySC_To_3
 .text.Nav_HallwaySC_To_2
                0x0800ecbc      0x188 ..\obj\bw2017_algorithm.o
                0x0800ecbc                Nav_HallwaySC_To_2
 .text.Nav_HallwaySC_To_4A
                0x0800ee44      0x14c ..\obj\bw2017_algorithm.o
                0x0800ee44                Nav_HallwaySC_To_4A
 .text.FollowTracer_Left
                0x0800ef90       0xe8 ..\obj\bw2017_algorithm.o
                0x0800ef90                FollowTracer_Left
 .text.Nav_HallwaySC_To_4B
                0x0800f078       0xc0 ..\obj\bw2017_algorithm.o
                0x0800f078                Nav_HallwaySC_To_4B
 .text.Nav_HallwaySC_To_1B
                0x0800f138      0x1b0 ..\obj\bw2017_algorithm.o
                0x0800f138                Nav_HallwaySC_To_1B
 .text.Nav_HallwaySC_To_1A
                0x0800f2e8       0xec ..\obj\bw2017_algorithm.o
                0x0800f2e8                Nav_HallwaySC_To_1A
 .text.FollowHome_Right
                0x0800f3d4       0xcc ..\obj\bw2017_algorithm.o
                0x0800f3d4                FollowHome_Right
 .text.FollowHome_Left
                0x0800f4a0       0xcc ..\obj\bw2017_algorithm.o
                0x0800f4a0                FollowHome_Left
 .text.Nav_3_To_HallwaySC
                0x0800f56c       0xdc ..\obj\bw2017_algorithm.o
                0x0800f56c                Nav_3_To_HallwaySC
 .text.Nav_2_To_HallwaySC
                0x0800f648      0x1b0 ..\obj\bw2017_algorithm.o
                0x0800f648                Nav_2_To_HallwaySC
 .text.Nav_1A_To_HallwaySC
                0x0800f7f8      0x510 ..\obj\bw2017_algorithm.o
                0x0800f7f8                Nav_1A_To_HallwaySC
 .text.Nav_1C_To_HallwaySC
                0x0800fd08      0x168 ..\obj\bw2017_algorithm.o
                0x0800fd08                Nav_1C_To_HallwaySC
 .text.Nav_4A_To_HallwaySC
                0x0800fe70      0x224 ..\obj\bw2017_algorithm.o
                0x0800fe70                Nav_4A_To_HallwaySC
 .text.Nav_4B_To_HallwaySC
                0x08010094       0xd4 ..\obj\bw2017_algorithm.o
                0x08010094                Nav_4B_To_HallwaySC
 .text.Nav_TurnAround
                0x08010168      0x16c ..\obj\bw2017_algorithm.o
                0x08010168                Nav_TurnAround
 .text.FlameSenseDigi_PID_Init
                0x080102d4       0x40 ..\obj\bw2017_algorithm.o
                0x080102d4                FlameSenseDigi_PID_Init
 .text.FlameSense_PID_Calc_Ver3
                0x08010314      0x10c ..\obj\bw2017_algorithm.o
                0x08010314                FlameSense_PID_Calc_Ver3
 .text.FlameTracking_Center
                0x08010420      0x1e0 ..\obj\bw2017_algorithm.o
                0x08010420                FlameTracking_Center
 .text.PID_FlameTracking_Ver3
                0x08010600      0x104 ..\obj\bw2017_algorithm.o
                0x08010600                PID_FlameTracking_Ver3
 .text.Bumper_Action
                0x08010704        0x4 ..\obj\bw2017_algorithm.o
                0x08010704                Bumper_Action
 .text.PID_BWFollowCarpet_Right_Interpolate
                0x08010708      0x370 ..\obj\bw2017_algorithm.o
                0x08010708                PID_BWFollowCarpet_Right_Interpolate
 .text.BWFollowCarpet_Right_Interpolate
                0x08010a78      0x120 ..\obj\bw2017_algorithm.o
                0x08010a78                BWFollowCarpet_Right_Interpolate
 .text.PID_BWFollowCarpet_Left
                0x08010b98      0x25c ..\obj\bw2017_algorithm.o
                0x08010b98                PID_BWFollowCarpet_Left
 .text.BWFollowCarpet_Left
                0x08010df4      0x10c ..\obj\bw2017_algorithm.o
                0x08010df4                BWFollowCarpet_Left
 .text.PID_BWFollowCarpet_Left_Interpolate
                0x08010f00      0x3b8 ..\obj\bw2017_algorithm.o
                0x08010f00                PID_BWFollowCarpet_Left_Interpolate
 .text.BWFollowCarpet_Left_Interpolate
                0x080112b8      0x138 ..\obj\bw2017_algorithm.o
                0x080112b8                BWFollowCarpet_Left_Interpolate
 .text.PID_BW_FollowCounter_Left
                0x080113f0      0x2e8 ..\obj\bw2017_algorithm.o
                0x080113f0                PID_BW_FollowCounter_Left
 .text.BW_FollowCounter_Left
                0x080116d8       0x84 ..\obj\bw2017_algorithm.o
                0x080116d8                BW_FollowCounter_Left
 .text.Furniture_Avoider
                0x0801175c      0x430 ..\obj\bw2017_algorithm.o
                0x0801175c                Furniture_Avoider
 .text.PID_BWFollowTracer_Right_Interpolate
                0x08011b8c      0x3ec ..\obj\bw2017_algorithm.o
                0x08011b8c                PID_BWFollowTracer_Right_Interpolate
 .text.BW_FollowTracer_Right_Interpolate
                0x08011f78      0x13c ..\obj\bw2017_algorithm.o
                0x08011f78                BW_FollowTracer_Right_Interpolate
 .text.Nav_3_To_2
                0x080120b4       0xc4 ..\obj\bw2017_algorithm.o
                0x080120b4                Nav_3_To_2
 .text.Nav_2A_To_1BC
                0x08012178       0xb0 ..\obj\bw2017_algorithm.o
                0x08012178                Nav_2A_To_1BC
 .text.Nav_2B_To_1BC
                0x08012228       0xc0 ..\obj\bw2017_algorithm.o
                0x08012228                Nav_2B_To_1BC
 .text.Nav_4B_To_2
                0x080122e8      0x130 ..\obj\bw2017_algorithm.o
                0x080122e8                Nav_4B_To_2
 .text.PID_BWFollowTracer_Left
                0x08012418      0x35c ..\obj\bw2017_algorithm.o
                0x08012418                PID_BWFollowTracer_Left
 .text.BW_FollowTracer_Left
                0x08012774      0x144 ..\obj\bw2017_algorithm.o
                0x08012774                BW_FollowTracer_Left
 .text.PID_BWFollowTracer_Left_Interpolate
                0x080128b8      0x450 ..\obj\bw2017_algorithm.o
                0x080128b8                PID_BWFollowTracer_Left_Interpolate
 .text.BW_FollowTracer_Left_Interpolate
                0x08012d08      0x15c ..\obj\bw2017_algorithm.o
                0x08012d08                BW_FollowTracer_Left_Interpolate
 .text.Nav_3_To_1BC
                0x08012e64      0x294 ..\obj\bw2017_algorithm.o
                0x08012e64                Nav_3_To_1BC
 .text.Nav_1C_To_2
                0x080130f8       0xd8 ..\obj\bw2017_algorithm.o
                0x080130f8                Nav_1C_To_2
 .text.Nav_1B_To_2
                0x080131d0       0xec ..\obj\bw2017_algorithm.o
                0x080131d0                Nav_1B_To_2
 .text.Nav_4B_To_1BC
                0x080132bc      0x17c ..\obj\bw2017_algorithm.o
                0x080132bc                Nav_4B_To_1BC
 .text.Nav_4B_To_3
                0x08013438      0x120 ..\obj\bw2017_algorithm.o
                0x08013438                Nav_4B_To_3
 .text.PID_BW_FollowCounter_Right
                0x08013558      0x2d8 ..\obj\bw2017_algorithm.o
                0x08013558                PID_BW_FollowCounter_Right
 .text.BW_FollowCounter_Right
                0x08013830       0x80 ..\obj\bw2017_algorithm.o
                0x08013830                BW_FollowCounter_Right
 .text.Nav_4A_To_1A
                0x080138b0      0x504 ..\obj\bw2017_algorithm.o
                0x080138b0                Nav_4A_To_1A
 .text.Nav_4A_To_2
                0x08013db4      0x9dc ..\obj\bw2017_algorithm.o
                0x08013db4                Nav_4A_To_2
 .text.Nav_3_To_4A
                0x08014790      0x4b0 ..\obj\bw2017_algorithm.o
                0x08014790                Nav_3_To_4A
 .text.Nav_3_To_4B
                0x08014c40       0xf8 ..\obj\bw2017_algorithm.o
                0x08014c40                Nav_3_To_4B
 .text.Nav_3_To_4AB
                0x08014d38      0x87c ..\obj\bw2017_algorithm.o
                0x08014d38                Nav_3_To_4AB
 .text.RoomTypeDetector
                0x080155b4      0x2c4 ..\obj\bw2017_algorithm.o
                0x080155b4                RoomTypeDetector
 .text.Nav_3_To_1A
                0x08015878      0x6e0 ..\obj\bw2017_algorithm.o
                0x08015878                Nav_3_To_1A
 .text.Nav_2_To_3
                0x08015f58      0x238 ..\obj\bw2017_algorithm.o
                0x08015f58                Nav_2_To_3
 .text.Nav_2_To_4A
                0x08016190      0x850 ..\obj\bw2017_algorithm.o
                0x08016190                Nav_2_To_4A
 .text.Nav_2_To_4A_NEW
                0x080169e0      0x798 ..\obj\bw2017_algorithm.o
                0x080169e0                Nav_2_To_4A_NEW
 .text.Nav_2_To_4A_NEW_VER2
                0x08017178      0xcb8 ..\obj\bw2017_algorithm.o
                0x08017178                Nav_2_To_4A_NEW_VER2
 .text.Nav_2_To_4B
                0x08017e30      0x4ec ..\obj\bw2017_algorithm.o
                0x08017e30                Nav_2_To_4B
 .text.Nav_1A_To_2
                0x0801831c      0x660 ..\obj\bw2017_algorithm.o
                0x0801831c                Nav_1A_To_2
 .text.Nav_1A_To_3
                0x0801897c      0x61c ..\obj\bw2017_algorithm.o
                0x0801897c                Nav_1A_To_3
 .text.Nav_1A_To_4B
                0x08018f98      0x6c8 ..\obj\bw2017_algorithm.o
                0x08018f98                Nav_1A_To_4B
 .text.Nav_1A_To_4A
                0x08019660      0x814 ..\obj\bw2017_algorithm.o
                0x08019660                Nav_1A_To_4A
 .text.Nav_1C_To_3
                0x08019e74      0x268 ..\obj\bw2017_algorithm.o
                0x08019e74                Nav_1C_To_3
 .text.Nav_1C_To_4A
                0x0801a0dc      0x958 ..\obj\bw2017_algorithm.o
                0x0801a0dc                Nav_1C_To_4A
 .text.Nav_1C_To_4B
                0x0801aa34      0x25c ..\obj\bw2017_algorithm.o
                0x0801aa34                Nav_1C_To_4B
 .text.Nav_4A_To_3
                0x0801ac90      0x920 ..\obj\bw2017_algorithm.o
                0x0801ac90                Nav_4A_To_3
 .text.Nav_4A_To_1A_VER2
                0x0801b5b0      0x614 ..\obj\bw2017_algorithm.o
                0x0801b5b0                Nav_4A_To_1A_VER2
 .text.Nav_4B_To_1A
                0x0801bbc4      0x794 ..\obj\bw2017_algorithm.o
                0x0801bbc4                Nav_4B_To_1A
 .text.BW_Navi  0x0801c358      0x50c ..\obj\bw2017_algorithm.o
                0x0801c358                BW_Navi
 .text.BW_ReturnTrip
                0x0801c864      0x89c ..\obj\bw2017_algorithm.o
                0x0801c864                BW_ReturnTrip
 .text.FlameTracking_Ver3
                0x0801d100      0x1a4 ..\obj\bw2017_algorithm.o
                0x0801d100                FlameTracking_Ver3
 .text.BW_FlameFollowDemo_Dynamixel
                0x0801d2a4      0x774 ..\obj\bw2017_algorithm.o
                0x0801d2a4                BW_FlameFollowDemo_Dynamixel
 .text.BW_Settings_2019
                0x0801da18      0x31c ..\obj\bw2017_algorithm.o
                0x0801da18                BW_Settings_2019
 .text.BW_FireFight_V2
                0x0801dd34     0x17cc ..\obj\bw2017_algorithm.o
                0x0801dd34                BW_FireFight_V2
 .text.Exit_No_Fire
                0x0801f500      0xba4 ..\obj\bw2017_algorithm.o
                0x0801f500                Exit_No_Fire
 .text.H_2018_Room
                0x080200a4     0x1904 ..\obj\bw2017_algorithm.o
                0x080200a4                H_2018_Room
 .text.H_ROOM_1BC_NEW_VER
                0x080219a8      0x1c4 ..\obj\bw2017_algorithm.o
                0x080219a8                H_ROOM_1BC_NEW_VER
 .text.H_ROOM_1A
                0x08021b6c      0x6cc ..\obj\bw2017_algorithm.o
                0x08021b6c                H_ROOM_1A
 .text.H_ROOM_2_NEW_VER2
                0x08022238      0x6b4 ..\obj\bw2017_algorithm.o
                0x08022238                H_ROOM_2_NEW_VER2
 .text.H_ROOM_3_VER2
                0x080228ec      0x4c8 ..\obj\bw2017_algorithm.o
                0x080228ec                H_ROOM_3_VER2
 .text.H_ROOM_4A_VER2
                0x08022db4      0x3b8 ..\obj\bw2017_algorithm.o
                0x08022db4                H_ROOM_4A_VER2
 .text.H_ROOM_4B_VER2
                0x0802316c      0x5b4 ..\obj\bw2017_algorithm.o
                0x0802316c                H_ROOM_4B_VER2
 .text.H_2017_Algorithm
                0x08023720      0x880 ..\obj\bw2017_algorithm.o
                0x08023720                H_2017_Algorithm
 .text.IR_Proximity_Init
                0x08023fa0       0x50 ..\obj\bw_infrared_proximity.o
                0x08023fa0                IR_Proximity_Init
 .text.Get_IR   0x08023ff0       0x88 ..\obj\bw_infrared_proximity.o
                0x08023ff0                Get_IR
 .text.BW_PID_Init
                0x08024078      0x154 ..\obj\bw_pid_controller.o
                0x08024078                BW_PID_Init
 .text.BW_PID_Init_FAR
                0x080241cc      0x154 ..\obj\bw_pid_controller.o
                0x080241cc                BW_PID_Init_FAR
 .text.BW_PID_Init_Room
                0x08024320      0x144 ..\obj\bw_pid_controller.o
                0x08024320                BW_PID_Init_Room
 .text.BW_PID_Init_Furniture
                0x08024464      0x144 ..\obj\bw_pid_controller.o
                0x08024464                BW_PID_Init_Furniture
 .text.PID_Calc_RightRule
                0x080245a8       0xe8 ..\obj\bw_pid_controller.o
                0x080245a8                PID_Calc_RightRule
 .text.PID_Calc_RightRule_Reverse
                0x08024690      0x10c ..\obj\bw_pid_controller.o
                0x08024690                PID_Calc_RightRule_Reverse
 .text.PID_Calc_LeftRule
                0x0802479c       0xe8 ..\obj\bw_pid_controller.o
                0x0802479c                PID_Calc_LeftRule
 .text.PID_Calc_LeftRule_Reverse
                0x08024884      0x10c ..\obj\bw_pid_controller.o
                0x08024884                PID_Calc_LeftRule_Reverse
 .text.PID_Calc_FlameRule
                0x08024990      0x10c ..\obj\bw_pid_controller.o
                0x08024990                PID_Calc_FlameRule
 .text.PID_Calculate_Rule_Interrupt_Init
                0x08024a9c       0x64 ..\obj\bw_pid_controller.o
                0x08024a9c                PID_Calculate_Rule_Interrupt_Init
 .text.Restore_Old_Error_Right
                0x08024b00       0x1c ..\obj\bw_pid_controller.o
                0x08024b00                Restore_Old_Error_Right
 .text.Restore_Old_Error_Left
                0x08024b1c       0x1c ..\obj\bw_pid_controller.o
                0x08024b1c                Restore_Old_Error_Left
 .text.TIM3_IRQHandler
                0x08024b38      0x108 ..\obj\bw_pid_controller.o
                0x08024b38                TIM3_IRQHandler
 .text.Kp_Tuning_R
                0x08024c40       0xa8 ..\obj\bw_pid_controller.o
                0x08024c40                Kp_Tuning_R
 .text.Ki_Tuning_R
                0x08024ce8       0xa8 ..\obj\bw_pid_controller.o
                0x08024ce8                Ki_Tuning_R
 .text.Kd_Tuning_R
                0x08024d90       0xa8 ..\obj\bw_pid_controller.o
                0x08024d90                Kd_Tuning_R
 .text.Kp_Tuning_L
                0x08024e38       0xa8 ..\obj\bw_pid_controller.o
                0x08024e38                Kp_Tuning_L
 .text.Ki_Tuning_L
                0x08024ee0       0xa8 ..\obj\bw_pid_controller.o
                0x08024ee0                Ki_Tuning_L
 .text.Kd_Tuning_L
                0x08024f88       0xa8 ..\obj\bw_pid_controller.o
                0x08024f88                Kd_Tuning_L
 .text.BW_Initial_Setup
                0x08025030       0x8c ..\obj\bw_utilities.o
                0x08025030                BW_Initial_Setup
 .text.GPIO_Init
                0x080250bc       0x90 ..\obj\stm32f4xx_gpio.o
                0x080250bc                GPIO_Init
 .text.GPIO_ReadInputDataBit
                0x0802514c        0xc ..\obj\stm32f4xx_gpio.o
                0x0802514c                GPIO_ReadInputDataBit
 .text.GPIO_SetBits
                0x08025158        0x4 ..\obj\stm32f4xx_gpio.o
                0x08025158                GPIO_SetBits
 .text.GPIO_ResetBits
                0x0802515c        0x4 ..\obj\stm32f4xx_gpio.o
                0x0802515c                GPIO_ResetBits
 .text.GPIO_PinAFConfig
                0x08025160       0x28 ..\obj\stm32f4xx_gpio.o
                0x08025160                GPIO_PinAFConfig
 .text.SystemInit
                0x08025188       0xf4 ..\obj\system_stm32f4xx.o
                0x08025188                SystemInit
 .text._sbrk    0x0802527c       0x20 ..\obj\syscalls.o
                0x0802527c                _sbrk
 .text.Get_UV   0x0802529c       0x34 ..\obj\bw_UV-TRON.o
                0x0802529c                Get_UV
 .text.SysTick_Init
                0x080252d0       0x34 ..\obj\bw_systick_delay.o
                0x080252d0                SysTick_Init
 .text.TimeTick_Decrement
                0x08025304       0x14 ..\obj\bw_systick_delay.o
                0x08025304                TimeTick_Decrement
 .text.SysTick_Handler
                0x08025318        0x8 ..\obj\bw_systick_delay.o
                0x08025318                SysTick_Handler
 .text.delay_us
                0x08025320       0x14 ..\obj\bw_systick_delay.o
                0x08025320                delay_us
 .text.delay_1ms
                0x08025334       0x18 ..\obj\bw_systick_delay.o
                0x08025334                delay_1ms
 .text.delay_ms
                0x0802534c       0x10 ..\obj\bw_systick_delay.o
                0x0802534c                delay_ms
 .text.HexJoint_Actuate
                0x0802535c       0xdc ..\obj\bw_dynamixel_hexapod_cmd.o
                0x0802535c                HexJoint_Actuate
 .text.HexJoint_Actuate_Interpolate
                0x08025438      0x1b0 ..\obj\bw_dynamixel_hexapod_cmd.o
                0x08025438                HexJoint_Actuate_Interpolate
 .text.Dynamx_MoveLeg_Interpolate
                0x080255e8      0x174 ..\obj\bw_dynamixel_hexapod_cmd.o
                0x080255e8                Dynamx_MoveLeg_Interpolate
 .text.Dynamx_MovFwd4cm_Interpolate
                0x0802575c     0x10f4 ..\obj\bw_dynamixel_hexapod_cmd.o
                0x0802575c                Dynamx_MovFwd4cm_Interpolate
 .text.Dynamx_Mov_Static_Interpolate
                0x08026850       0x7c ..\obj\bw_dynamixel_hexapod_cmd.o
                0x08026850                Dynamx_Mov_Static_Interpolate
 *fill*         0x080268cc        0x4 
 .text.Dynamx_GenerateIK
                0x080268d0      0x1a0 ..\obj\bw_dynamixel_hexapod_cmd.o
                0x080268d0                Dynamx_GenerateIK
 .text.Dynamx_IK
                0x08026a70      0x478 ..\obj\bw_dynamixel_hexapod_cmd.o
                0x08026a70                Dynamx_IK
 .text.Dynamx_MoveLeg
                0x08026ee8      0x174 ..\obj\bw_dynamixel_hexapod_cmd.o
                0x08026ee8                Dynamx_MoveLeg
 .text.Dynamx_Mov_Static
                0x0802705c      0x124 ..\obj\bw_dynamixel_hexapod_cmd.o
                0x0802705c                Dynamx_Mov_Static
 .text.Dynamx_MovFwd4cm
                0x08027180     0x1754 ..\obj\bw_dynamixel_hexapod_cmd.o
                0x08027180                Dynamx_MovFwd4cm
 .text.Dynamx_MovBwd_Interpolate
                0x080288d4      0xd54 ..\obj\bw_dynamixel_hexapod_cmd.o
                0x080288d4                Dynamx_MovBwd_Interpolate
 .text.Dynamx_Rot_Right
                0x08029628      0xd08 ..\obj\bw_dynamixel_hexapod_cmd.o
                0x08029628                Dynamx_Rot_Right
 .text.Dynamx_Rot_Right_Interpolate
                0x0802a330      0x9e4 ..\obj\bw_dynamixel_hexapod_cmd.o
                0x0802a330                Dynamx_Rot_Right_Interpolate
 .text.Dynamx_Rot_Left
                0x0802ad14      0xd20 ..\obj\bw_dynamixel_hexapod_cmd.o
                0x0802ad14                Dynamx_Rot_Left
 .text.Dynamx_Rot_Left_Interpolate
                0x0802ba34      0x9dc ..\obj\bw_dynamixel_hexapod_cmd.o
                0x0802ba34                Dynamx_Rot_Left_Interpolate
 .text.Dynamx_Rot_Right_PID_Interpolate
                0x0802c410      0x910 ..\obj\bw_dynamixel_hexapod_cmd.o
                0x0802c410                Dynamx_Rot_Right_PID_Interpolate
 .text.Dynamx_Rot_Left_PID_Interpolate
                0x0802cd20      0x910 ..\obj\bw_dynamixel_hexapod_cmd.o
                0x0802cd20                Dynamx_Rot_Left_PID_Interpolate
 .text.Dynamx_Slide_Left
                0x0802d630      0x95c ..\obj\bw_dynamixel_hexapod_cmd.o
                0x0802d630                Dynamx_Slide_Left
 .text.Dynamx_Slide_Left_Interpolate
                0x0802df8c      0xb2c ..\obj\bw_dynamixel_hexapod_cmd.o
                0x0802df8c                Dynamx_Slide_Left_Interpolate
 .text.Dynamx_Slide_Right_Interpolate
                0x0802eab8      0xb28 ..\obj\bw_dynamixel_hexapod_cmd.o
                0x0802eab8                Dynamx_Slide_Right_Interpolate
 .text.Dynamx_CurveRight_PID
                0x0802f5e0     0x12d8 ..\obj\bw_dynamixel_hexapod_cmd.o
                0x0802f5e0                Dynamx_CurveRight_PID
 .text.Dynamx_CurveRight_PID_Interpolate
                0x080308b8     0x1490 ..\obj\bw_dynamixel_hexapod_cmd.o
                0x080308b8                Dynamx_CurveRight_PID_Interpolate
 .text.Dynamx_CurveLeft_PID
                0x08031d48     0x12d8 ..\obj\bw_dynamixel_hexapod_cmd.o
                0x08031d48                Dynamx_CurveLeft_PID
 .text.Dynamx_CurveLeft_PID_Interpolate
                0x08033020     0x1500 ..\obj\bw_dynamixel_hexapod_cmd.o
                0x08033020                Dynamx_CurveLeft_PID_Interpolate
 .text.Get_TPA81
                0x08034520        0xc ..\obj\bw_tpa_servo.o
                0x08034520                Get_TPA81
 .text.BW_TPA81_I2C_Init
                0x0803452c       0x8c ..\obj\bw_tpa_servo.o
                0x0803452c                BW_TPA81_I2C_Init
 .text.I2C2_TimeOut
                0x080345b8       0x30 ..\obj\bw_tpa_servo.o
                0x080345b8                I2C2_TimeOut
 .text.Read_I2C
                0x080345e8      0x190 ..\obj\bw_tpa_servo.o
                0x080345e8                Read_I2C
 .text.BW_TPA_Check
                0x08034778      0x1ac ..\obj\bw_tpa_servo.o
                0x08034778                BW_TPA_Check
 .text.Display_TPA81
                0x08034924       0xa4 ..\obj\bw_tpa_servo.o
                0x08034924                Display_TPA81
 .text.I2C_DeInit
                0x080349c8       0x64 ..\obj\stm32f4xx_i2c.o
                0x080349c8                I2C_DeInit
 .text.I2C_Init
                0x08034a2c       0xd8 ..\obj\stm32f4xx_i2c.o
                0x08034a2c                I2C_Init
 .text.I2C_Cmd  0x08034b04       0x1c ..\obj\stm32f4xx_i2c.o
                0x08034b04                I2C_Cmd
 .text.I2C_GenerateSTART
                0x08034b20       0x1c ..\obj\stm32f4xx_i2c.o
                0x08034b20                I2C_GenerateSTART
 .text.I2C_GenerateSTOP
                0x08034b3c       0x1c ..\obj\stm32f4xx_i2c.o
                0x08034b3c                I2C_GenerateSTOP
 .text.I2C_Send7bitAddress
                0x08034b58       0x10 ..\obj\stm32f4xx_i2c.o
                0x08034b58                I2C_Send7bitAddress
 .text.I2C_AcknowledgeConfig
                0x08034b68       0x1c ..\obj\stm32f4xx_i2c.o
                0x08034b68                I2C_AcknowledgeConfig
 .text.I2C_SoftwareResetCmd
                0x08034b84       0x1c ..\obj\stm32f4xx_i2c.o
                0x08034b84                I2C_SoftwareResetCmd
 .text.I2C_SendData
                0x08034ba0        0x4 ..\obj\stm32f4xx_i2c.o
                0x08034ba0                I2C_SendData
 .text.I2C_ReceiveData
                0x08034ba4        0x8 ..\obj\stm32f4xx_i2c.o
                0x08034ba4                I2C_ReceiveData
 .text.I2C_CheckEvent
                0x08034bac       0x1c ..\obj\stm32f4xx_i2c.o
                0x08034bac                I2C_CheckEvent
 .text.I2C_GetFlagStatus
                0x08034bc8       0x38 ..\obj\stm32f4xx_i2c.o
                0x08034bc8                I2C_GetFlagStatus
 .text.RS_off   0x08034c00       0x14 ..\obj\bw_lcd.o
                0x08034c00                RS_off
 .text.EN_off   0x08034c14       0x14 ..\obj\bw_lcd.o
                0x08034c14                EN_off
 .text.EN_on    0x08034c28       0x14 ..\obj\bw_lcd.o
                0x08034c28                EN_on
 .text.D4_off   0x08034c3c       0x14 ..\obj\bw_lcd.o
                0x08034c3c                D4_off
 .text.D4_on    0x08034c50       0x14 ..\obj\bw_lcd.o
                0x08034c50                D4_on
 .text.D5_off   0x08034c64       0x14 ..\obj\bw_lcd.o
                0x08034c64                D5_off
 .text.D5_on    0x08034c78       0x14 ..\obj\bw_lcd.o
                0x08034c78                D5_on
 .text.D6_off   0x08034c8c       0x14 ..\obj\bw_lcd.o
                0x08034c8c                D6_off
 .text.D6_on    0x08034ca0       0x14 ..\obj\bw_lcd.o
                0x08034ca0                D6_on
 .text.D7_off   0x08034cb4       0x14 ..\obj\bw_lcd.o
                0x08034cb4                D7_off
 .text.D7_on    0x08034cc8       0x14 ..\obj\bw_lcd.o
                0x08034cc8                D7_on
 .text.lcd_write_nible
                0x08034cdc       0x50 ..\obj\bw_lcd.o
                0x08034cdc                lcd_write_nible
 .text.lcd_write_byte
                0x08034d2c       0x1c ..\obj\bw_lcd.o
                0x08034d2c                lcd_write_byte
 .text.lcd_write_cmd_byte
                0x08034d48       0x20 ..\obj\bw_lcd.o
                0x08034d48                lcd_write_cmd_byte
 .text.BW_LCD_Init
                0x08034d68       0x18 ..\obj\bw_lcd.o
                0x08034d68                BW_LCD_Init
 .text.lcd_putstr
                0x08034d80       0x18 ..\obj\bw_lcd.o
                0x08034d80                lcd_putstr
 .text.lcd_gotoxy
                0x08034d98        0x8 ..\obj\bw_lcd.o
                0x08034d98                lcd_gotoxy
 .text.lcd_display_clear
                0x08034da0        0x8 ..\obj\bw_lcd.o
                0x08034da0                lcd_display_clear
 .text.lcd_cursor_off_blink_off
                0x08034da8       0x14 ..\obj\bw_lcd.o
                0x08034da8                lcd_cursor_off_blink_off
 .text.NVIC_Init
                0x08034dbc       0x70 ..\obj\misc.o
                0x08034dbc                NVIC_Init
 .text.BW_CMPS11_Init
                0x08034e2c        0x4 ..\obj\bw_cmps11.o
                0x08034e2c                BW_CMPS11_Init
 .text.BW_CMPS11_I2C_Init
                0x08034e30       0xcc ..\obj\bw_cmps11.o
                0x08034e30                BW_CMPS11_I2C_Init
 .text.I2C3_TimeOut
                0x08034efc       0x30 ..\obj\bw_cmps11.o
                0x08034efc                I2C3_TimeOut
 .text.I2C3_ReadByte
                0x08034f2c      0x194 ..\obj\bw_cmps11.o
                0x08034f2c                I2C3_ReadByte
 .text.GetCMPS11_Angle8Bit
                0x080350c0       0xc0 ..\obj\bw_cmps11.o
                0x080350c0                GetCMPS11_Angle8Bit
 .text.Get_East_Status
                0x08035180       0x48 ..\obj\bw_cmps11.o
                0x08035180                Get_East_Status
 .text.Get_North_Status
                0x080351c8        0x8 ..\obj\bw_cmps11.o
                0x080351c8                Get_North_Status
 .text.Get_Data_Status
                0x080351d0      0x248 ..\obj\bw_cmps11.o
                0x080351d0                Get_Data_Status
 .text.Display_Yaw_Angle
                0x08035418       0xd4 ..\obj\bw_cmps11.o
                0x08035418                Display_Yaw_Angle
 .text.Display_TCS3200_Data
                0x080354ec      0x104 ..\obj\bw_tcs3200_receiver.o
                0x080354ec                Display_TCS3200_Data
 .text.Display_Tracer_Data
                0x080355f0      0x128 ..\obj\bw_tcs3200_receiver.o
                0x080355f0                Display_Tracer_Data
 .text.Display_TCS3200_Rule
                0x08035718       0x94 ..\obj\bw_tcs3200_receiver.o
                0x08035718                Display_TCS3200_Rule
 .text.TCS3200_Cal_DisplayStat
                0x080357ac      0x150 ..\obj\bw_tcs3200_receiver.o
                0x080357ac                TCS3200_Cal_DisplayStat
 .text.TCS3200_Calibration
                0x080358fc      0x2bc ..\obj\bw_tcs3200_receiver.o
                0x080358fc                TCS3200_Calibration
 .text.Tracer_Cal_DisplayStat
                0x08035bb8      0x150 ..\obj\bw_tcs3200_receiver.o
                0x08035bb8                Tracer_Cal_DisplayStat
 .text.Tracer_Calibration
                0x08035d08      0x2c8 ..\obj\bw_tcs3200_receiver.o
                0x08035d08                Tracer_Calibration
 .text.Tracer_Calibration_MOV
                0x08035fd0      0x2f0 ..\obj\bw_tcs3200_receiver.o
                0x08035fd0                Tracer_Calibration_MOV
 .text.Display_Threshold
                0x080362c0       0xd8 ..\obj\bw_tcs3200_receiver.o
                0x080362c0                Display_Threshold
 .text.Display_New_Tracer
                0x08036398       0x9c ..\obj\bw_tcs3200_receiver.o
                0x08036398                Display_New_Tracer
 .text.Hybrid_TCS3200Tracer_MainMenu
                0x08036434      0x254 ..\obj\bw_tcs3200_receiver.o
                0x08036434                Hybrid_TCS3200Tracer_MainMenu
 .text.TIM_TimeBaseInit
                0x08036688       0x88 ..\obj\stm32f4xx_tim.o
                0x08036688                TIM_TimeBaseInit
 .text.TIM_Cmd  0x08036710       0x1c ..\obj\stm32f4xx_tim.o
                0x08036710                TIM_Cmd
 .text.TIM_ITConfig
                0x0803672c       0x18 ..\obj\stm32f4xx_tim.o
                0x0803672c                TIM_ITConfig
 .text.TIM_ClearFlag
                0x08036744        0x8 ..\obj\stm32f4xx_tim.o
                0x08036744                TIM_ClearFlag
 .text.TIM_GetITStatus
                0x0803674c       0x18 ..\obj\stm32f4xx_tim.o
                0x0803674c                TIM_GetITStatus
 .text.TIM_ClearITPendingBit
                0x08036764        0x8 ..\obj\stm32f4xx_tim.o
                0x08036764                TIM_ClearITPendingBit
 .text.ADC1_config
                0x0803676c       0x68 ..\obj\bw_flame_sensor.o
                0x0803676c                ADC1_config
 .text.FlameSensor_Init
                0x080367d4       0x34 ..\obj\bw_flame_sensor.o
                0x080367d4                FlameSensor_Init
 .text.GetFlame
                0x08036808       0x20 ..\obj\bw_flame_sensor.o
                0x08036808                GetFlame
 .text.atan     0x08036828      0x350 C:\Program Files (x86)\GNU Tools ARM Embedded\4.8 2014q1\arm-none-eabi\lib\armv7e-m\libm.a(lib_a-s_atan.o)
                0x08036828                atan
 .text.cos      0x08036b78       0x74 C:\Program Files (x86)\GNU Tools ARM Embedded\4.8 2014q1\arm-none-eabi\lib\armv7e-m\libm.a(lib_a-s_cos.o)
                0x08036b78                cos
 .text.fabs     0x08036bec        0x8 C:\Program Files (x86)\GNU Tools ARM Embedded\4.8 2014q1\arm-none-eabi\lib\armv7e-m\libm.a(lib_a-s_fabs.o)
                0x08036bec                fabs
 .text.fmax     0x08036bf4       0x38 C:\Program Files (x86)\GNU Tools ARM Embedded\4.8 2014q1\arm-none-eabi\lib\armv7e-m\libm.a(lib_a-s_fmax.o)
                0x08036bf4                fmax
 .text.__fpclassifyd
                0x08036c2c       0x50 C:\Program Files (x86)\GNU Tools ARM Embedded\4.8 2014q1\arm-none-eabi\lib\armv7e-m\libm.a(lib_a-s_fpclassify.o)
                0x08036c2c                __fpclassifyd
 .text.sin      0x08036c7c       0x94 C:\Program Files (x86)\GNU Tools ARM Embedded\4.8 2014q1\arm-none-eabi\lib\armv7e-m\libm.a(lib_a-s_sin.o)
                0x08036c7c                sin
 .text.acos     0x08036d10       0xa8 C:\Program Files (x86)\GNU Tools ARM Embedded\4.8 2014q1\arm-none-eabi\lib\armv7e-m\libm.a(lib_a-w_acos.o)
                0x08036d10                acos
 .text.__ieee754_acos
                0x08036db8      0x4b8 C:\Program Files (x86)\GNU Tools ARM Embedded\4.8 2014q1\arm-none-eabi\lib\armv7e-m\libm.a(lib_a-e_acos.o)
                0x08036db8                __ieee754_acos
 .text.__ieee754_rem_pio2
                0x08037270      0x440 C:\Program Files (x86)\GNU Tools ARM Embedded\4.8 2014q1\arm-none-eabi\lib\armv7e-m\libm.a(lib_a-e_rem_pio2.o)
                0x08037270                __ieee754_rem_pio2
 .text.__ieee754_sqrt
                0x080376b0      0x180 C:\Program Files (x86)\GNU Tools ARM Embedded\4.8 2014q1\arm-none-eabi\lib\armv7e-m\libm.a(lib_a-e_sqrt.o)
                0x080376b0                __ieee754_sqrt
 .text.__kernel_cos
                0x08037830      0x250 C:\Program Files (x86)\GNU Tools ARM Embedded\4.8 2014q1\arm-none-eabi\lib\armv7e-m\libm.a(lib_a-k_cos.o)
                0x08037830                __kernel_cos
 .text.__kernel_rem_pio2
                0x08037a80      0x7b0 C:\Program Files (x86)\GNU Tools ARM Embedded\4.8 2014q1\arm-none-eabi\lib\armv7e-m\libm.a(lib_a-k_rem_pio2.o)
                0x08037a80                __kernel_rem_pio2
 .text.__kernel_sin
                0x08038230      0x170 C:\Program Files (x86)\GNU Tools ARM Embedded\4.8 2014q1\arm-none-eabi\lib\armv7e-m\libm.a(lib_a-k_sin.o)
                0x08038230                __kernel_sin
 .text.floor    0x080383a0      0x120 C:\Program Files (x86)\GNU Tools ARM Embedded\4.8 2014q1\arm-none-eabi\lib\armv7e-m\libm.a(lib_a-s_floor.o)
                0x080383a0                floor
 .text.matherr  0x080384c0        0x4 C:\Program Files (x86)\GNU Tools ARM Embedded\4.8 2014q1\arm-none-eabi\lib\armv7e-m\libm.a(lib_a-s_matherr.o)
                0x080384c0                matherr
 .text.nan      0x080384c4        0xc C:\Program Files (x86)\GNU Tools ARM Embedded\4.8 2014q1\arm-none-eabi\lib\armv7e-m\libm.a(lib_a-s_nan.o)
                0x080384c4                nan
 .text.scalbn   0x080384d0      0x118 C:\Program Files (x86)\GNU Tools ARM Embedded\4.8 2014q1\arm-none-eabi\lib\armv7e-m\libm.a(lib_a-s_scalbn.o)
                0x080384d0                scalbn
 .text.copysign
                0x080385e8       0x14 C:\Program Files (x86)\GNU Tools ARM Embedded\4.8 2014q1\arm-none-eabi\lib\armv7e-m\libm.a(lib_a-s_copysign.o)
                0x080385e8                copysign
 .text          0x080385fc      0x370 c:/program files (x86)/gnu tools arm embedded/4.8 2014q1/bin/../lib/gcc/arm-none-eabi/4.8.3/armv7e-m\libgcc.a(_arm_addsubdf3.o)
                0x080385fc                __aeabi_drsub
                0x08038604                __aeabi_dsub
                0x08038604                __subdf3
                0x08038608                __aeabi_dadd
                0x08038608                __adddf3
                0x08038880                __floatunsidf
                0x08038880                __aeabi_ui2d
                0x080388a0                __floatsidf
                0x080388a0                __aeabi_i2d
                0x080388c4                __aeabi_f2d
                0x080388c4                __extendsfdf2
                0x08038900                __floatundidf
                0x08038900                __aeabi_ul2d
                0x08038910                __floatdidf
                0x08038910                __aeabi_l2d
 .text          0x0803896c      0x424 c:/program files (x86)/gnu tools arm embedded/4.8 2014q1/bin/../lib/gcc/arm-none-eabi/4.8.3/armv7e-m\libgcc.a(_arm_muldivdf3.o)
                0x0803896c                __aeabi_dmul
                0x0803896c                __muldf3
                0x08038bc0                __divdf3
                0x08038bc0                __aeabi_ddiv
 .text          0x08038d90      0x110 c:/program files (x86)/gnu tools arm embedded/4.8 2014q1/bin/../lib/gcc/arm-none-eabi/4.8.3/armv7e-m\libgcc.a(_arm_cmpdf2.o)
                0x08038d90                __gtdf2
                0x08038d90                __gedf2
                0x08038d98                __ltdf2
                0x08038d98                __ledf2
                0x08038da0                __nedf2
                0x08038da0                __eqdf2
                0x08038da0                __cmpdf2
                0x08038e1c                __aeabi_cdrcmple
                0x08038e2c                __aeabi_cdcmpeq
                0x08038e2c                __aeabi_cdcmple
                0x08038e3c                __aeabi_dcmpeq
                0x08038e50                __aeabi_dcmplt
                0x08038e64                __aeabi_dcmple
                0x08038e78                __aeabi_dcmpge
                0x08038e8c                __aeabi_dcmpgt
 .text          0x08038ea0       0x50 c:/program files (x86)/gnu tools arm embedded/4.8 2014q1/bin/../lib/gcc/arm-none-eabi/4.8.3/armv7e-m\libgcc.a(_arm_fixdfsi.o)
                0x08038ea0                __aeabi_d2iz
                0x08038ea0                __fixdfsi
 .text          0x08038ef0       0xa0 c:/program files (x86)/gnu tools arm embedded/4.8 2014q1/bin/../lib/gcc/arm-none-eabi/4.8.3/armv7e-m\libgcc.a(_arm_truncdfsf2.o)
                0x08038ef0                __truncdfsf2
                0x08038ef0                __aeabi_d2f
 .text          0x08038f90      0x21c c:/program files (x86)/gnu tools arm embedded/4.8 2014q1/bin/../lib/gcc/arm-none-eabi/4.8.3/armv7e-m\libgcc.a(_arm_addsubsf3.o)
                0x08038f90                __aeabi_frsub
                0x08038f98                __subsf3
                0x08038f98                __aeabi_fsub
                0x08038f9c                __aeabi_fadd
                0x08038f9c                __addsf3
                0x080390fc                __aeabi_ui2f
                0x080390fc                __floatunsisf
                0x08039104                __aeabi_i2f
                0x08039104                __floatsisf
                0x08039120                __aeabi_ul2f
                0x08039120                __floatundisf
                0x08039130                __aeabi_l2f
                0x08039130                __floatdisf
 .text          0x080391ac      0x2a0 c:/program files (x86)/gnu tools arm embedded/4.8 2014q1/bin/../lib/gcc/arm-none-eabi/4.8.3/armv7e-m\libgcc.a(_arm_muldivsf3.o)
                0x080391ac                __mulsf3
                0x080391ac                __aeabi_fmul
                0x08039314                __aeabi_fdiv
                0x08039314                __divsf3
 .text          0x0803944c       0xec c:/program files (x86)/gnu tools arm embedded/4.8 2014q1/bin/../lib/gcc/arm-none-eabi/4.8.3/armv7e-m\libgcc.a(_arm_cmpsf2.o)
                0x0803944c                __gesf2
                0x0803944c                __gtsf2
                0x08039454                __lesf2
                0x08039454                __ltsf2
                0x0803945c                __nesf2
                0x0803945c                __eqsf2
                0x0803945c                __cmpsf2
                0x080394bc                __aeabi_cfrcmple
                0x080394c4                __aeabi_cfcmpeq
                0x080394c4                __aeabi_cfcmple
                0x080394d4                __aeabi_fcmpeq
                0x080394e8                __aeabi_fcmplt
                0x080394fc                __aeabi_fcmple
                0x08039510                __aeabi_fcmpge
                0x08039524                __aeabi_fcmpgt
 .text          0x08039538       0x4c c:/program files (x86)/gnu tools arm embedded/4.8 2014q1/bin/../lib/gcc/arm-none-eabi/4.8.3/armv7e-m\libgcc.a(_arm_fixsfsi.o)
                0x08039538                __aeabi_f2iz
                0x08039538                __fixsfsi
 .text          0x08039584       0x40 c:/program files (x86)/gnu tools arm embedded/4.8 2014q1/bin/../lib/gcc/arm-none-eabi/4.8.3/armv7e-m\libgcc.a(_arm_fixunssfsi.o)
                0x08039584                __fixunssfsi
                0x08039584                __aeabi_f2uiz
 .text.__errno  0x080395c4        0xc C:\Program Files (x86)\GNU Tools ARM Embedded\4.8 2014q1\arm-none-eabi\lib\armv7e-m\libc.a(lib_a-errno.o)
                0x080395c4                __errno
 .text          0x080395d0      0x134 C:\Program Files (x86)\GNU Tools ARM Embedded\4.8 2014q1\arm-none-eabi\lib\armv7e-m\libc.a(lib_a-memcpy.o)
                0x080395d0                memcpy
 .text.sprintf  0x08039704       0x4c C:\Program Files (x86)\GNU Tools ARM Embedded\4.8 2014q1\arm-none-eabi\lib\armv7e-m\libc.a(lib_a-sprintf.o)
                0x08039704                sprintf
 .text.strlen   0x08039750       0x60 C:\Program Files (x86)\GNU Tools ARM Embedded\4.8 2014q1\arm-none-eabi\lib\armv7e-m\libc.a(lib_a-strlen.o)
                0x08039750                strlen
 .text._svfprintf_r
                0x080397b0     0x14f8 C:\Program Files (x86)\GNU Tools ARM Embedded\4.8 2014q1\arm-none-eabi\lib\armv7e-m\libc.a(lib_a-svfprintf.o)
                0x080397b0                _svfprintf_r
 .text.quorem   0x0803aca8      0x130 C:\Program Files (x86)\GNU Tools ARM Embedded\4.8 2014q1\arm-none-eabi\lib\armv7e-m\libc.a(lib_a-dtoa.o)
 .text._dtoa_r  0x0803add8      0xe38 C:\Program Files (x86)\GNU Tools ARM Embedded\4.8 2014q1\arm-none-eabi\lib\armv7e-m\libc.a(lib_a-dtoa.o)
                0x0803add8                _dtoa_r
 .text._localeconv_r
                0x0803bc10        0x8 C:\Program Files (x86)\GNU Tools ARM Embedded\4.8 2014q1\arm-none-eabi\lib\armv7e-m\libc.a(lib_a-locale.o)
                0x0803bc10                _localeconv_r
 .text._malloc_r
                0x0803bc18      0x538 C:\Program Files (x86)\GNU Tools ARM Embedded\4.8 2014q1\arm-none-eabi\lib\armv7e-m\libc.a(lib_a-mallocr.o)
                0x0803bc18                _malloc_r
 .text.memchr   0x0803c150       0x90 C:\Program Files (x86)\GNU Tools ARM Embedded\4.8 2014q1\arm-none-eabi\lib\armv7e-m\libc.a(lib_a-memchr-stub.o)
                0x0803c150                memchr
 .text.__malloc_lock
                0x0803c1e0        0x4 C:\Program Files (x86)\GNU Tools ARM Embedded\4.8 2014q1\arm-none-eabi\lib\armv7e-m\libc.a(lib_a-mlock.o)
                0x0803c1e0                __malloc_lock
 .text.__malloc_unlock
                0x0803c1e4        0x4 C:\Program Files (x86)\GNU Tools ARM Embedded\4.8 2014q1\arm-none-eabi\lib\armv7e-m\libc.a(lib_a-mlock.o)
                0x0803c1e4                __malloc_unlock
 .text._Balloc  0x0803c1e8       0x4c C:\Program Files (x86)\GNU Tools ARM Embedded\4.8 2014q1\arm-none-eabi\lib\armv7e-m\libc.a(lib_a-mprec.o)
                0x0803c1e8                _Balloc
 .text._Bfree   0x0803c234       0x14 C:\Program Files (x86)\GNU Tools ARM Embedded\4.8 2014q1\arm-none-eabi\lib\armv7e-m\libc.a(lib_a-mprec.o)
                0x0803c234                _Bfree
 .text.__multadd
                0x0803c248       0x98 C:\Program Files (x86)\GNU Tools ARM Embedded\4.8 2014q1\arm-none-eabi\lib\armv7e-m\libc.a(lib_a-mprec.o)
                0x0803c248                __multadd
 .text.__hi0bits
                0x0803c2e0       0x40 C:\Program Files (x86)\GNU Tools ARM Embedded\4.8 2014q1\arm-none-eabi\lib\armv7e-m\libc.a(lib_a-mprec.o)
                0x0803c2e0                __hi0bits
 .text.__lo0bits
                0x0803c320       0x5c C:\Program Files (x86)\GNU Tools ARM Embedded\4.8 2014q1\arm-none-eabi\lib\armv7e-m\libc.a(lib_a-mprec.o)
                0x0803c320                __lo0bits
 .text.__i2b    0x0803c37c       0x14 C:\Program Files (x86)\GNU Tools ARM Embedded\4.8 2014q1\arm-none-eabi\lib\armv7e-m\libc.a(lib_a-mprec.o)
                0x0803c37c                __i2b
 .text.__multiply
                0x0803c390      0x13c C:\Program Files (x86)\GNU Tools ARM Embedded\4.8 2014q1\arm-none-eabi\lib\armv7e-m\libc.a(lib_a-mprec.o)
                0x0803c390                __multiply
 .text.__pow5mult
                0x0803c4cc       0x9c C:\Program Files (x86)\GNU Tools ARM Embedded\4.8 2014q1\arm-none-eabi\lib\armv7e-m\libc.a(lib_a-mprec.o)
                0x0803c4cc                __pow5mult
 .text.__lshift
                0x0803c568       0xbc C:\Program Files (x86)\GNU Tools ARM Embedded\4.8 2014q1\arm-none-eabi\lib\armv7e-m\libc.a(lib_a-mprec.o)
                0x0803c568                __lshift
 .text.__mcmp   0x0803c624       0x48 C:\Program Files (x86)\GNU Tools ARM Embedded\4.8 2014q1\arm-none-eabi\lib\armv7e-m\libc.a(lib_a-mprec.o)
                0x0803c624                __mcmp
 .text.__mdiff  0x0803c66c       0xd4 C:\Program Files (x86)\GNU Tools ARM Embedded\4.8 2014q1\arm-none-eabi\lib\armv7e-m\libc.a(lib_a-mprec.o)
                0x0803c66c                __mdiff
 .text.__d2b    0x0803c740       0xbc C:\Program Files (x86)\GNU Tools ARM Embedded\4.8 2014q1\arm-none-eabi\lib\armv7e-m\libc.a(lib_a-mprec.o)
                0x0803c740                __d2b
 .text._sbrk_r  0x0803c7fc       0x24 C:\Program Files (x86)\GNU Tools ARM Embedded\4.8 2014q1\arm-none-eabi\lib\armv7e-m\libc.a(lib_a-sbrkr.o)
                0x0803c7fc                _sbrk_r
 .text.__ssprint_r
                0x0803c820      0x100 C:\Program Files (x86)\GNU Tools ARM Embedded\4.8 2014q1\arm-none-eabi\lib\armv7e-m\libc.a(lib_a-svfiprintf.o)
                0x0803c820                __ssprint_r
 .text._calloc_r
                0x0803c920       0x60 C:\Program Files (x86)\GNU Tools ARM Embedded\4.8 2014q1\arm-none-eabi\lib\armv7e-m\libc.a(lib_a-callocr.o)
                0x0803c920                _calloc_r
 .text._malloc_trim_r
                0x0803c980       0x9c C:\Program Files (x86)\GNU Tools ARM Embedded\4.8 2014q1\arm-none-eabi\lib\armv7e-m\libc.a(lib_a-freer.o)
                0x0803c980                _malloc_trim_r
 .text._free_r  0x0803ca1c      0x19c C:\Program Files (x86)\GNU Tools ARM Embedded\4.8 2014q1\arm-none-eabi\lib\armv7e-m\libc.a(lib_a-freer.o)
                0x0803ca1c                _free_r
 .text.memmove  0x0803cbb8       0xc0 C:\Program Files (x86)\GNU Tools ARM Embedded\4.8 2014q1\arm-none-eabi\lib\armv7e-m\libc.a(lib_a-memmove.o)
                0x0803cbb8                memmove
 .text.memset   0x0803cc78       0x94 C:\Program Files (x86)\GNU Tools ARM Embedded\4.8 2014q1\arm-none-eabi\lib\armv7e-m\libc.a(lib_a-memset.o)
                0x0803cc78                memset
 .text._realloc_r
                0x0803cd0c      0x3cc C:\Program Files (x86)\GNU Tools ARM Embedded\4.8 2014q1\arm-none-eabi\lib\armv7e-m\libc.a(lib_a-reallocr.o)
                0x0803cd0c                _realloc_r
 .text          0x0803d0d8       0x2c c:/program files (x86)/gnu tools arm embedded/4.8 2014q1/bin/../lib/gcc/arm-none-eabi/4.8.3/armv7e-m\libgcc.a(_aeabi_uldivmod.o)
                0x0803d0d8                __aeabi_uldivmod
 .text          0x0803d104       0x60 c:/program files (x86)/gnu tools arm embedded/4.8 2014q1/bin/../lib/gcc/arm-none-eabi/4.8.3/armv7e-m\libgcc.a(bpabi.o)
                0x0803d104                __gnu_ldivmod_helper
                0x0803d134                __gnu_uldivmod_helper
 .text          0x0803d164        0x4 c:/program files (x86)/gnu tools arm embedded/4.8 2014q1/bin/../lib/gcc/arm-none-eabi/4.8.3/armv7e-m\libgcc.a(_dvmd_tls.o)
                0x0803d164                __aeabi_idiv0
                0x0803d164                __aeabi_ldiv0
 .text          0x0803d168      0x298 c:/program files (x86)/gnu tools arm embedded/4.8 2014q1/bin/../lib/gcc/arm-none-eabi/4.8.3/armv7e-m\libgcc.a(_divdi3.o)
                0x0803d168                __divdi3
 .text          0x0803d400      0x284 c:/program files (x86)/gnu tools arm embedded/4.8 2014q1/bin/../lib/gcc/arm-none-eabi/4.8.3/armv7e-m\libgcc.a(_udivdi3.o)
                0x0803d400                __udivdi3
 *(.init)
 *(.fini)
 *crtbegin.o(.ctors)
 *crtbegin?.o(.ctors)
 *(EXCLUDE_FILE(*crtend.o *crtend?.o) .ctors)
 *(SORT(.ctors.*))
 *(.ctors)
 *crtbegin.o(.dtors)
 *crtbegin?.o(.dtors)
 *(EXCLUDE_FILE(*crtend.o *crtend?.o) .dtors)
 *(SORT(.dtors.*))
 *(.dtors)
 *(.rodata*)
 .rodata        0x0803d684      0x16c ..\obj\bw_global_var.o
                0x0803d684                RIGHT_FOLLOW
                0x0803d688                LEFT_FOLLOW
                0x0803d68c                TRACER_CALIBRATE_GETRULE
                0x0803d690                TRACER_CALIBRATE_BLACK
                0x0803d694                TRACER_CALIBRATE_WHITE
                0x0803d698                TRACER_CALIBRATE_GRAY
                0x0803d69c                FOLLOW_COLOUR_DISABLE
                0x0803d6a0                FOLLOW_CARPET_ACTIVE
                0x0803d6a4                FOLLOW_TRACER_WHITE
                0x0803d6a8                SOUNDCHECK
                0x0803d6ac                IMU_CMD_SEND_RAW
                0x0803d6b0                TCS_MIDDLE_SHOW_THRESHOLD
                0x0803d6b4                TCS_FRONT_SHOW_THRESHOLD
                0x0803d6b8                TCS_CALIBRATE_GETRULE
                0x0803d6bc                TCS_CALIBRATE_GRAY
                0x0803d6c0                TCS_CALIBRATE_BLACK
                0x0803d6c4                TCS_CALIBRATE_WHITE
                0x0803d6c8                Gyro_Sensitivity_2000s
                0x0803d6cc                Gyro_Sensitivity_1000s
                0x0803d6d0                alpha
                0x0803d6e8                leg_norm
                0x0803d700                leg_1
                0x0803d718                B_const
                0x0803d760                A_const
                0x0803d7a8                REAR_RIGHT_DX_TIBIA
                0x0803d7ac                REAR_RIGHT_DX_FEMUR
                0x0803d7b0                REAR_RIGHT_DX_COXA
                0x0803d7b4                MIDDLE_RIGHT_DX_TIBIA
                0x0803d7b8                MIDDLE_RIGHT_DX_FEMUR
                0x0803d7bc                MIDDLE_RIGHT_DX_COXA
                0x0803d7c0                FRONT_RIGHT_DX_TIBIA
                0x0803d7c4                FRONT_RIGHT_DX_FEMUR
                0x0803d7c8                FRONT_RIGHT_DX_COXA
                0x0803d7cc                REAR_LEFT_DX_TIBIA
                0x0803d7d0                REAR_LEFT_DX_FEMUR
                0x0803d7d4                REAR_LEFT_DX_COXA
                0x0803d7d8                MIDDLE_LEFT_DX_TIBIA
                0x0803d7dc                MIDDLE_LEFT_DX_FEMUR
                0x0803d7e0                MIDDLE_LEFT_DX_COXA
                0x0803d7e4                FRONT_LEFT_DX_TIBIA
                0x0803d7e8                FRONT_LEFT_DX_FEMUR
                0x0803d7ec                FRONT_LEFT_DX_COXA
 .rodata.str1.4
                0x0803d7f0       0x1b ..\obj\bw_dynamixel_ax_12a.o
                                 0x1c (size before relaxing)
 *fill*         0x0803d80b        0x1 
 .rodata.str1.4
                0x0803d80c       0x7c ..\obj\bw_usart_comm.o
 .rodata        0x0803d888       0x10 ..\obj\bw_i2c_lcd.o
 .rodata.str1.4
                0x0803d898      0x14a ..\obj\BW_I2C_EEPROM.o
                                0x154 (size before relaxing)
 *fill*         0x0803d9e2        0x2 
 .rodata.str1.4
                0x0803d9e4      0x48c ..\obj\bw_hexapod_cmd.o
 .rodata.str1.4
                0x0803de70       0xf5 ..\obj\bw_rotary_switch.o
                                 0xf8 (size before relaxing)
 *fill*         0x0803df65        0x3 
 .rodata.str1.4
                0x0803df68      0x22c ..\obj\main.o
                                0x238 (size before relaxing)
 .rodata.str1.4
                0x0803e194      0x128 ..\obj\bw_ping_receiver.o
 .rodata.str1.4
                0x0803e2bc       0xb2 ..\obj\bw_extinguisher.o
                                 0xec (size before relaxing)
 *fill*         0x0803e36e        0x2 
 .rodata.str1.4
                0x0803e370       0x50 ..\obj\bw_bumper.o
                                 0x5c (size before relaxing)
 .rodata.str1.4
                0x0803e3c0     0x1258 ..\obj\bw2017_algorithm.o
                               0x13f4 (size before relaxing)
 .rodata.str1.4
                0x0803f618       0x8d ..\obj\bw_pid_controller.o
                                 0xb0 (size before relaxing)
 .rodata.str1.4
                0x00000000       0x3c ..\obj\bw_utilities.o
 *fill*         0x0803f6a5        0x3 
 .rodata.str1.4
                0x0803f6a8      0x871 ..\obj\bw_dynamixel_hexapod_cmd.o
                                0x8a0 (size before relaxing)
 *fill*         0x0803ff19        0x3 
 .rodata.str1.4
                0x0803ff1c       0x3f ..\obj\bw_tpa_servo.o
                                 0x54 (size before relaxing)
 *fill*         0x0803ff5b        0x1 
 .rodata.str1.4
                0x0803ff5c      0x3f9 ..\obj\bw_cmps11.o
                                0x438 (size before relaxing)
 *fill*         0x08040355        0x3 
 .rodata.str1.4
                0x08040358      0x347 ..\obj\bw_tcs3200_receiver.o
                                0x37c (size before relaxing)
 *fill*         0x0804069f        0x1 
 .rodata.atanlo
                0x080406a0       0x20 C:\Program Files (x86)\GNU Tools ARM Embedded\4.8 2014q1\arm-none-eabi\lib\armv7e-m\libm.a(lib_a-s_atan.o)
 .rodata.atanhi
                0x080406c0       0x20 C:\Program Files (x86)\GNU Tools ARM Embedded\4.8 2014q1\arm-none-eabi\lib\armv7e-m\libm.a(lib_a-s_atan.o)
 .rodata.str1.4
                0x080406e0        0x5 C:\Program Files (x86)\GNU Tools ARM Embedded\4.8 2014q1\arm-none-eabi\lib\armv7e-m\libm.a(lib_a-w_acos.o)
                                  0xc (size before relaxing)
 *fill*         0x080406e5        0x3 
 .rodata.npio2_hw
                0x080406e8       0x80 C:\Program Files (x86)\GNU Tools ARM Embedded\4.8 2014q1\arm-none-eabi\lib\armv7e-m\libm.a(lib_a-e_rem_pio2.o)
 .rodata.two_over_pi
                0x08040768      0x108 C:\Program Files (x86)\GNU Tools ARM Embedded\4.8 2014q1\arm-none-eabi\lib\armv7e-m\libm.a(lib_a-e_rem_pio2.o)
 .rodata.init_jk
                0x08040870       0x10 C:\Program Files (x86)\GNU Tools ARM Embedded\4.8 2014q1\arm-none-eabi\lib\armv7e-m\libm.a(lib_a-k_rem_pio2.o)
 .rodata.PIo2   0x08040880       0x40 C:\Program Files (x86)\GNU Tools ARM Embedded\4.8 2014q1\arm-none-eabi\lib\armv7e-m\libm.a(lib_a-k_rem_pio2.o)
 .rodata.str1.4
                0x00000000        0x5 C:\Program Files (x86)\GNU Tools ARM Embedded\4.8 2014q1\arm-none-eabi\lib\armv7e-m\libc.a(lib_a-impure.o)
                                  0x4 (size before relaxing)
 .rodata.zeroes.6760
                0x080408c0       0x10 C:\Program Files (x86)\GNU Tools ARM Embedded\4.8 2014q1\arm-none-eabi\lib\armv7e-m\libc.a(lib_a-svfprintf.o)
 .rodata.str1.4
                0x080408d0       0x42 C:\Program Files (x86)\GNU Tools ARM Embedded\4.8 2014q1\arm-none-eabi\lib\armv7e-m\libc.a(lib_a-svfprintf.o)
                                 0x44 (size before relaxing)
 *fill*         0x08040912        0x2 
 .rodata.blanks.6759
                0x08040914       0x10 C:\Program Files (x86)\GNU Tools ARM Embedded\4.8 2014q1\arm-none-eabi\lib\armv7e-m\libc.a(lib_a-svfprintf.o)
 .rodata.str1.4
                0x08040924       0x10 C:\Program Files (x86)\GNU Tools ARM Embedded\4.8 2014q1\arm-none-eabi\lib\armv7e-m\libc.a(lib_a-dtoa.o)
                                 0x14 (size before relaxing)
 .rodata.str1.4
                0x08040934        0x8 C:\Program Files (x86)\GNU Tools ARM Embedded\4.8 2014q1\arm-none-eabi\lib\armv7e-m\libc.a(lib_a-locale.o)
                                 0x14 (size before relaxing)
 *fill*         0x0804093c        0x4 
 .rodata.__mprec_tens
                0x08040940       0xc8 C:\Program Files (x86)\GNU Tools ARM Embedded\4.8 2014q1\arm-none-eabi\lib\armv7e-m\libc.a(lib_a-mprec.o)
                0x08040940                __mprec_tens
 .rodata.__mprec_bigtens
                0x08040a08       0x28 C:\Program Files (x86)\GNU Tools ARM Embedded\4.8 2014q1\arm-none-eabi\lib\armv7e-m\libc.a(lib_a-mprec.o)
                0x08040a08                __mprec_bigtens
 .rodata.p05.5266
                0x08040a30        0xc C:\Program Files (x86)\GNU Tools ARM Embedded\4.8 2014q1\arm-none-eabi\lib\armv7e-m\libc.a(lib_a-mprec.o)
 *(.eh_fram e*)

.glue_7         0x08040a3c        0x0
 .glue_7        0x00000000        0x0 linker stubs

.glue_7t        0x08040a3c        0x0
 .glue_7t       0x00000000        0x0 linker stubs

.vfp11_veneer   0x08040a3c        0x0
 .vfp11_veneer  0x00000000        0x0 linker stubs

.v4_bx          0x08040a3c        0x0
 .v4_bx         0x00000000        0x0 linker stubs

.iplt           0x08040a3c        0x0
 .iplt          0x00000000        0x0 ..\obj\bw_articulated_manipulator.o

.ARM.extab
 *(.ARM.extab* .gnu.linkonce.armextab.*)
                0x08040a3c                __exidx_start = .

.ARM.exidx      0x08040a3c        0x8
 *(.ARM.exidx* .gnu.linkonce.armexidx.*)
 .ARM.exidx     0x08040a3c        0x8 c:/program files (x86)/gnu tools arm embedded/4.8 2014q1/bin/../lib/gcc/arm-none-eabi/4.8.3/armv7e-m\libgcc.a(_divdi3.o)
 .ARM.exidx     0x08040a44        0x0 c:/program files (x86)/gnu tools arm embedded/4.8 2014q1/bin/../lib/gcc/arm-none-eabi/4.8.3/armv7e-m\libgcc.a(_udivdi3.o)
                                  0x8 (size before relaxing)
                0x08040a44                __exidx_end = .
                0x08040a44                __etext = .
                0x08040a44                _sidata = __etext

.rel.dyn        0x08040a44        0x0
 .rel.iplt      0x00000000        0x0 ..\obj\bw_articulated_manipulator.o

.data           0x20000000     0x1054 load address 0x08040a44
                0x20000000                __data_start__ = .
                0x20000000                _sdata = __data_start__
 *(vtable)
 *(.data*)
 .data          0x20000000      0x7b8 ..\obj\bw_global_var.o
                0x20000000                Dynamx_LinkTibia
                0x20000004                Dynamx_LinkFemur
                0x20000008                ROOM1A_SP_MIDDLE_FLAG
                0x2000000c                FIREROOM_R1A_ACTIVE
                0x20000010                FIREROOM_R4AB_ACTIVE
                0x20000014                ROOM4AB_ACTIVE
                0x20000018                R4B_THRESHOLD
                0x2000001c                R4A_THRESHOLD
                0x20000020                R3_R4B_THRESHOLD_MIDDLE
                0x20000024                R2_THRESHOLD
                0x20000028                R1A_THRESHOLD
                0x2000002c                R1A_R4A_THRESHOLD_MIDDLE
                0x20000030                R1C_THRESHOLD
                0x20000034                R1B_THRESHOLD
                0x20000038                Fuzzy_FKR_SP
                0x2000003c                angel_high
                0x20000040                angel_med_high
                0x20000044                angel_medium
                0x20000048                angel_med_low
                0x2000004c                speed_fast
                0x20000050                speed_med_fast
                0x20000054                speed_medium
                0x20000058                speed_med_slow
                0x2000005c                speed_slow
                0x20000060                CAT_MIN_RANGE
                0x20000064                R4B_RETURN
                0x20000068                R4A_RETURN
                0x2000006c                FOUR_WAY_INV
                0x20000070                ROOM_1C_DETECT_NAV
                0x20000074                ROOM_1B_DETECT_NAV
                0x20000078                ROOM_4B_DETECT_IN
                0x2000007c                ROOM_4A_DETECT_IN
                0x20000080                ROOM_1C_DETECT
                0x20000084                ROOM_1B_DETECT
                0x20000088                ROOM_4B_DETECT
                0x2000008c                ROOM_4A_DETECT
                0x20000090                ROOM_1A_RETURN
                0x20000094                START_MID_CORRECTION
                0x20000098                ROOM_4B_TURN_CORRECTION
                0x2000009c                ROOM_1A_CORRECTION
                0x200000a0                ROOM_2_1BC_CORRECTION
                0x200000a4                FOUR_WAY_CORRECTION
                0x200000a8                ROOM_1A_RETURN_MANUAL
                0x200000ac                START_MID_MANUAL
                0x200000b0                EAST_THRESHOLD_MIDDLE
                0x200000b4                EAST_THRESHOLD_LOWER
                0x200000b8                EAST_THRESHOLD_UPPER
                0x200000bc                SOUTH_THRESHOLD_MIDDLE
                0x200000c0                SOUTH_THRESHOLD_LOWER
                0x200000c4                SOUTH_THRESHOLD_UPPER
                0x200000c8                WEST_THRESHOLD_MIDDLE
                0x200000cc                WEST_THRESHOLD_LOWER
                0x200000d0                WEST_THRESHOLD_UPPER
                0x200000d4                NORTH_THRESHOLD_MIDDLE
                0x200000d8                NORTH_THRESHOLD_LOWER
                0x200000dc                NORTH_THRESHOLD_UPPER
                0x200000e0                TRESH_LOWER
                0x200000e4                TRESH_UPPER
                0x200000e8                CMPS_ACTIVE
                0x200000ec                REVERSEFLAG_ACTIVE
                0x200000f0                TURN_RIGHT
                0x200000f4                TURN_LEFT
                0x200000f8                SHIFT_ALGORITHM_ACTIVE
                0x200000fc                SP_ROUTE_ACTIVE
                0x20000100                R4ATO3_SP_ACTIVE
                0x20000104                R2TO4A_SP_ACTIVE
                0x20000108                ROOM4A_CAT_AVOIDER_ACTIVE
                0x2000010c                ROOM1A_SP_EXIT_FLAG_ACTIVE
                0x20000110                ROOM4BFLAG_EXIT_ACTIVE
                0x20000114                ROOM4BFLAG_ACTIVE
                0x20000118                ROOM4AFLAG_ACTIVE
                0x2000011c                ROOM4FLAG_ACTIVE
                0x20000120                ROOM2BFLAG_ACTIVE
                0x20000124                ROOM1BCFLAG_ACTIVE
                0x20000128                ROOM1FLAG_ACTIVE
                0x2000012c                KIRI
                0x20000130                KANAN
                0x20000134                KIRI_BELAKANG
                0x20000138                KANAN_BELAKANG
                0x2000013c                FLAME
                0x20000140                EXIT_ACTIVE
                0x20000144                SP_FIRE_ACTIVE
                0x20000148                FOLLOWTRACER_ENABLE
                0x2000014c                NO_FOLLOW
                0x20000150                TRACER_GRAY
                0x20000154                TRACER_WHITE
                0x20000158                TRC_BMP_ACTIVE
                0x2000015c                POJOK
                0x20000160                TENGAH
                0x20000164                GRAY_ROOM
                0x20000168                NORMAL_ROOM
                0x2000016c                ROOM_4B
                0x20000170                ROOM_4A
                0x20000174                ROOM_3
                0x20000178                ROOM_2B
                0x2000017c                ROOM_2A
                0x20000180                ROOM_1C
                0x20000184                ROOM_1B
                0x20000188                ROOM_1A
                0x2000018c                ROOM
                0x200001a4                CMD_TRACER_COPY_DATA
                0x200001a8                CMD_GET_TRACER
                0x200001ac                CMD_GET_TCS3200
                0x200001b0                HYBRID_CMD_SEND_THRESHOLD
                0x200001b4                BW_SOUND_ACTIVATED
                0x200001b8                TCS_CMD_SAVE_EEPROM
                0x200001bc                TCS_CMD_SEND_CONCLUSION
                0x200001c0                TRACER_CMD_SEND_RAW
                0x200001c4                TCS_CMD_SEND_RAW
                0x200001c8                CMD_IDLE
                0x200001cc                CMD_COMPLETED
                0x200001d0                BUTTON_B
                0x200001d4                BUTTON_A
                0x200001d8                CALIBRATION_MODE
                0x200001dc                TRIAL_MODE
                0x200001e0                DUMMY_DATA_G
                0x200001e4                DUMMY_DATA_A
                0x200001e8                MIDDLE_PREVIOUS
                0x200001ec                MIDDLE_PRESENT
                0x200001f0                FRONT_PREVIOUS
                0x200001f4                ENABLE_UV2
                0x200001f8                ENABLE_UV1
                0x200001fc                BAUD_38400
                0x20000200                BAUD_19200
                0x20000204                RESTORE_3
                0x20000208                RESTORE_2
                0x2000020c                RESTORE_1
                0x20000210                CALIBRATE_EXIT
                0x20000214                CALIBRATE_BYTE_3_FLAT
                0x20000218                CALIBRATE_BYTE_3_FULL
                0x2000021c                CALIBRATE_BYTE_2
                0x20000220                CALIBRATE_BYTE_1
                0x20000224                GET_ALL
                0x20000228                GET_TEMP
                0x2000022c                GET_GYRO_RAW
                0x20000230                GET_ACCEL_RAW
                0x20000234                GET_MAG_RAW
                0x20000238                GET_ROLL_NO_KF
                0x2000023c                GET_PITCH_NO_KF
                0x20000240                GET_ROLL
                0x20000244                GET_PITCH
                0x20000248                GET_ANGLE_16_BIT
                0x2000024c                GET_ANGLE_8_BIT
                0x20000250                GET_VERSION
                0x20000254                FOLLOW_CARPET_ESCAPE_TRAP
                0x20000258                FOLLOW_CARPET_ENABLED
                0x2000025c                VAR_DOOR_SCAN
                0x20000260                VAR_DOOR_DETECTED
                0x20000264                WARZONE
                0x20000268                ROOM_ONE
                0x2000026c                OTHER_ROOM
                0x20000270                PREVIOUS_ROOM
                0x20000274                ROOM_FLAG
                0x2000027c                SPECIAL_CONDITION_ENABLED
                0x20000280                ENEMY_ZONE
                0x20000284                STEALFIRE_FAILED
                0x20000288                STEALFIRE_SUCCESS
                0x2000028c                CROSSING_FAILED
                0x20000290                CROSSING_SUCCESS
                0x20000294                CROSS_ENABLED
                0x20000298                FOLLOWHOME_ACTIVE
                0x2000029c                HOME_CIRCLE_DETECTED
                0x200002a0                CALIBRATION_STAT
                0x200002a4                TEST
                0x200002a8                GRAVITY
                0x200002b0                PI
                0x200002b8                Gyro_Sensitivity_500s
                0x200002bc                MPU6050_ACCEL_CONFIG
                0x200002c0                MPU6050_GYRO_CONFIG
                0x200002c4                MPU6050_PWR_MGMT_1
                0x200002c8                correct
                0x20000310                sudut
                0x20000358                IKPIDR_TIBIA_R
                0x20000364                IKPIDR_COXA_R
                0x20000370                IKCRVLR_TIBIA_R
                0x2000037c                IKCRVLR_COXA_R
                0x20000388                IKCRVLR_TIBIA_L
                0x20000394                IKCRVLR_COXA_L
                0x200003a0                IKPIDR_TIBIA_L
                0x200003ac                IKPIDR_COXA_L
                0x200003b8                IKCRVRR_TIBIA_R
                0x200003c4                IKCRVRR_COXA_R
                0x200003d0                IKCRVRR_TIBIA_L
                0x200003dc                IKCRVRR_COXA_L
                0x200003e8                IKBWD_TIBIA_L
                0x200003f4                IKBWD_COXA_L
                0x20000400                IKBWD_TIBIA_R
                0x2000040c                IKBWD_COXA_R
                0x20000418                IKSLL_TIBIA2
                0x20000428                IKSLL_COXA2
                0x20000434                IKSLL_TIBIA1
                0x20000444                IKSLL_COXA1
                0x20000450                IKSLL_TIBIA
                0x20000460                IKSLL_COXA
                0x2000046c                IKLPID_TIBIA_L2
                0x20000478                IKLPID_COXA_L2
                0x20000484                IKCRVL_TIBIA_L2
                0x20000490                IKCRVL_COXA_L2
                0x2000049c                IKCRVL_TIBIA_R2
                0x200004a8                IKCRVL_COXA_R2
                0x200004b4                IKLPID_TIBIA_L
                0x200004c0                IKLPID_COXA_L
                0x200004cc                IKCRVL_TIBIA_L
                0x200004d8                IKCRVL_COXA_L
                0x200004e4                IKCRVL_TIBIA_R
                0x200004f0                IKCRVL_COXA_R
                0x200004fc                IKSLR_TIBIA2
                0x2000050c                IKSLR_COXA2
                0x20000518                IKSLR_TIBIA1
                0x20000528                IKSLR_COXA1
                0x20000534                IKSLR_TIBIA
                0x20000544                IKSLR_COXA
                0x20000550                IKRPID_TIBIA_R
                0x2000055c                IKRPID_COXA_R
                0x20000568                IKCRVR_TIBIA_L
                0x20000574                IKCRVR_COXA_L
                0x20000580                IKCRVR_TIBIA_R
                0x2000058c                IKCRVR_COXA_R
                0x20000598                IKRPID_TIBIA_R2
                0x200005a4                IKRPID_COXA_R2
                0x200005b0                IKCRVR_TIBIA_L2
                0x200005bc                IKCRVR_COXA_L2
                0x200005c8                IKCRVR_TIBIA_R2
                0x200005d4                IKCRVR_COXA_R2
                0x200005e0                IKFWD_TIBIA_L3
                0x200005ec                IKFWD_COXA_L3
                0x200005f8                IKFWD_TIBIA_R3
                0x20000604                IKFWD_COXA_R3
                0x20000610                IKFWD_TIBIA_L2
                0x2000061c                IKFWD_COXA_L2
                0x20000628                IKFWD_TIBIA_R2
                0x20000634                IKFWD_COXA_R2
                0x20000640                IKFWD_TIBIA_L1
                0x2000064c                IKFWD_COXA_L1
                0x20000658                IKFWD_TIBIA_R1
                0x20000664                IKFWD_COXA_R1
                0x20000670                IKFWD_TIBIA_L
                0x2000067c                IKFWD_COXA_L
                0x20000688                IKFWD_TIBIA_R
                0x20000694                IKFWD_COXA_R
                0x200006a0                SUDUT_ANGKAT
                0x200006a4                SUDUT_STATIC_BWD
                0x200006ec                SUDUT_STATIC
                0x20000734                RAW_VAL_FLAG
                0x20000738                IN_ROOM_STAT
                0x2000073c                FRONT_THRESHOLD
                0x20000740                COMMAND_NOT_RECEIVED
                0x20000744                COMMAND_COMPLETED
                0x20000748                COMMAND_FLAG_B
                0x2000074c                COMMAND_FLAG_A
                0x20000750                sensor_UV_back
                0x20000751                sensor_UV_front
                0x20000752                led_counter
                0x20000754                UV_R2FLAG_ACTIVE
                0x20000758                CAT_ACTIVATED
                0x2000075c                CAT_DETECTED
                0x20000760                SHIFT_FOLLOW
                0x20000764                FOLLOW_KANAN
                0x20000768                FOLLOW_KIRI
                0x2000076c                LOCATION_ROOM
                0x20000770                BW_LOCATION
                0x20000778                TRACER
                0x2000077c                ZONE_BLUE
                0x20000780                ZONE_RED
                0x20000784                ZONE_BLACK
                0x20000788                CANDLE_CIRCLE_DETECTED
                0x2000078c                MID_TCS3200
                0x20000790                FRONT_TCS3200
                0x20000794                COLOUR_BLUE
                0x20000798                COLOUR_RED
                0x2000079c                COLOUR_WHITE
                0x200007a0                COLOUR_GRAY
                0x200007a4                RCV_BUTTON_B
                0x200007a8                RCV_BUTTON_A
                0x200007ac                RCV_START
                0x200007b0                RCV_IDLE
                0x200007b4                START_BUTTON_CMD
 .data          0x200007b8       0x10 ..\obj\stm32f4xx_rcc.o
 .data          0x200007c8       0x14 ..\obj\system_stm32f4xx.o
                0x200007c8                SystemCoreClock
                0x200007cc                AHBPrescTable
 .data.__fdlib_version
                0x200007dc        0x1 C:\Program Files (x86)\GNU Tools ARM Embedded\4.8 2014q1\arm-none-eabi\lib\armv7e-m\libm.a(lib_a-s_lib_ver.o)
                0x200007dc                __fdlib_version
 *fill*         0x200007dd        0x3 
 .data.impure_data
                0x200007e0      0x428 C:\Program Files (x86)\GNU Tools ARM Embedded\4.8 2014q1\arm-none-eabi\lib\armv7e-m\libc.a(lib_a-impure.o)
 .data._impure_ptr
                0x20000c08        0x4 C:\Program Files (x86)\GNU Tools ARM Embedded\4.8 2014q1\arm-none-eabi\lib\armv7e-m\libc.a(lib_a-impure.o)
                0x20000c08                _impure_ptr
 .data.lconv    0x20000c0c       0x38 C:\Program Files (x86)\GNU Tools ARM Embedded\4.8 2014q1\arm-none-eabi\lib\armv7e-m\libc.a(lib_a-locale.o)
 .data.__malloc_av_
                0x20000c44      0x408 C:\Program Files (x86)\GNU Tools ARM Embedded\4.8 2014q1\arm-none-eabi\lib\armv7e-m\libc.a(lib_a-mallocr.o)
                0x20000c44                __malloc_av_
 .data.__malloc_trim_threshold
                0x2000104c        0x4 C:\Program Files (x86)\GNU Tools ARM Embedded\4.8 2014q1\arm-none-eabi\lib\armv7e-m\libc.a(lib_a-mallocr.o)
                0x2000104c                __malloc_trim_threshold
 .data.__malloc_sbrk_base
                0x20001050        0x4 C:\Program Files (x86)\GNU Tools ARM Embedded\4.8 2014q1\arm-none-eabi\lib\armv7e-m\libc.a(lib_a-mallocr.o)
                0x20001050                __malloc_sbrk_base
                0x20001054                . = ALIGN (0x4)
                0x20001054                PROVIDE (__preinit_array_start, .)
 *(.preinit_array)
                0x20001054                PROVIDE (__preinit_array_end, .)
                0x20001054                . = ALIGN (0x4)
                0x20001054                PROVIDE (__init_array_start, .)
 *(SORT(.init_array.*))
 *(.init_array)
                0x20001054                PROVIDE (__init_array_end, .)
                0x20001054                . = ALIGN (0x4)
                0x20001054                PROVIDE (__fini_array_start, .)
 *(SORT(.fini_array.*))
 *(.fini_array)
                0x20001054                PROVIDE (__fini_array_end, .)
 *(.jcr*)
                0x20001054                . = ALIGN (0x4)
                0x20001054                __data_end__ = .
                0x20001054                _edata = __data_end__

.igot.plt       0x20001054        0x0 load address 0x08041a98
 .igot.plt      0x00000000        0x0 ..\obj\bw_articulated_manipulator.o

.bss            0x20001054     0x3a6c load address 0x08041a98
                0x20001054                . = ALIGN (0x4)
                0x20001054                __bss_start__ = .
                0x20001054                _sbss = __bss_start__
 *(.bss*)
 .bss           0x20001054      0x428 ..\obj\bw_global_var.o
                0x20001054                DynamxCorrection
                0x2000109c                FIREROOM_R1A_INACTIVE
                0x200010a0                FIREROOM_R1A_FLAG
                0x200010a4                FIREROOM_R4AB_INACTIVE
                0x200010a8                FIREROOM_R4AB_FLAG
                0x200010ac                ROOM4AB_INACTIVE
                0x200010b0                ROOM4AB_FLAG
                0x200010b4                angel_low
                0x200010b8                DIFF_4A_1BC
                0x200010bc                ROOM_4B_MANUAL
                0x200010c0                ROOM_4B_ROT_MANUAL
                0x200010c4                ROOM_4A_MANUAL
                0x200010c8                ROOM_2_1BC_MANUAL
                0x200010cc                ROOM_1A_MANUAL
                0x200010d0                FOUR_WAY_MANUAL
                0x200010d4                LEFT_COUNTER
                0x200010d8                RIGHT_COUNTER
                0x200010dc                TRESH_FLAG
                0x200010e0                ARENA_FLAG
                0x200010e4                CMPS_INACTIVE
                0x200010e8                KONSTANTA
                0x200010f0                BACA
                0x20001100                cnt
                0x20001104                REVERSEFLAG_INACTIVE
                0x20001108                BW_TurnAround
                0x2000110c                FIRESCAN_DIRECTION
                0x20001110                LEFT_OVERFLOW_COUNTER
                0x20001114                RIGHT_OVERFLOW_COUNTER
                0x20001118                SHIFT_ALGORITHM_INACTIVE
                0x2000111c                R4ATO1_SP_ROUTE
                0x20001120                R4ATO2_SP_ROUTE
                0x20001124                SP_ROUTE_INACTIVE
                0x20001128                R4ATO3_SP_INACTIVE
                0x2000112c                R4ATO3_SP_ROUTE
                0x20001130                R2TO4A_SP_INACTIVE
                0x20001134                R2TO4A_SP_ROUTE
                0x20001138                ROOM4A_CAT_AVOIDER_INACTIVE
                0x2000113c                ROOM1A_SP_EXIT_FLAG_INACTIVE
                0x20001140                ROOM4BFLAG_EXIT_INACTIVE
                0x20001144                ROOM4BFLAG_INACTIVE
                0x20001148                ROOM4AFLAG_INACTIVE
                0x2000114c                ROOM4FLAG_INACTIVE
                0x20001150                ROOM2BFLAG_INACTIVE
                0x20001154                ROOM1BCFLAG_INACTIVE
                0x20001158                ROOM1FLAG_INACTIVE
                0x2000115c                KOSONG
                0x20001160                EXIT_INACTIVE
                0x20001164                SP_FIRE_INACTIVE
                0x20001168                CANDLE_STAT
                0x2000116c                CANDLE_FIRE
                0x20001170                CANDLE_STICK
                0x20001174                FOLLOWTRACER_DISABLE
                0x20001178                FOLLOWTRACER_FLAG
                0x2000117c                TRACER_BREAK
                0x20001180                TRACER_BLACK
                0x20001184                TRACER_STAT
                0x20001188                TRC_BMP_INACTIVE
                0x2000118c                HOME_POS
                0x20001190                ROOM_TYPE
                0x20001194                HALLWAY_SC
                0x20001198                FOLLOWMODE_FLAG
                0x2000119c                TCS3200_CMD_CODE
                0x200011b0                TCS3200_SLV_DATA
                0x200011dc                FRONT_PRESENT
                0x200011e0                TCS3200_SLV_STAT
                0x200011f0                TCS3200_SLV_CNT
                0x200011f4                BUMPER
                0x200011fc                DUMMY_VAR
                0x20001200                RANK
                0x20001220                UV_VARIABLE2
                0x20001224                UV_VARIABLE
                0x20001228                FlameFrontDigi
                0x20001230                FlameSenseDigi
                0x20001238                FlameApproach_Flag
                0x2000123c                FlameExtinguish_Flag
                0x20001240                FlameScan_Flag
                0x20001244                FlameTrack_Flag
                0x20001248                FollowFlame_Flag
                0x2000124c                FlameSense
                0x20001254                RETURN_TRIP_FLAG
                0x20001258                CMPS11_COMPASS_ANGLE
                0x2000125c                USART2_DATA
                0x20001274                Arm_Correction
                0x20001280                Arm_Angle
                0x2000128c                FOLLOW_CARPET_DISABLED
                0x20001290                FOLLOW_CARPET_FLAG
                0x20001294                RETURN_COUNTER
                0x20001298                FIRST_CAT_ENCOUNTER
                0x2000129c                VAR_DOOR_NOT_DETECTED
                0x200012a0                VARIABLE_DOOR
                0x200012a4                PRESENT_ROOM
                0x200012a8                SPECIAL_CONDITION_COUNTER
                0x200012ac                SPECIAL_CONDITION_DISABLED
                0x200012b0                SPECIAL_CONDITION_FLAG
                0x200012b4                COMFORT_ZONE
                0x200012b8                ENEMY_ZONE_STAT
                0x200012bc                STEAL_FIRE_COUNTER
                0x200012c0                STEAL_FIRE_STAT
                0x200012c4                NO_CROSSING
                0x200012c8                BW_CROSSING_STATUS
                0x200012cc                CROSS_DISABLED
                0x200012d0                BW_CROSSING_AUTHORITY
                0x200012d4                global_counter
                0x200012d8                WARZONE_COUNTER
                0x200012dc                ROOM2B_FLAG
                0x200012e0                ROOM1BC_FLAG
                0x200012e4                ROOM1_FLAG
                0x200012e8                EXTINGUISHER_FLAG
                0x200012ec                BW_FOUND_FIRE_OVERRIDE
                0x200012f0                firetrack_counter
                0x200012f4                FOLLOWHOME_INACTIVE
                0x200012f8                FOLLOWHOME_FLAG
                0x200012fc                HOME_CIRCLE_NOT_DETECTED
                0x20001300                HOME_CIRCLE_FLAG
                0x20001304                SPECIAL_ZONE_FLAG
                0x20001308                WARZONE_FLAG
                0x2000130c                ROOM_COUNTER
                0x20001310                IMU_SLAVE_DATA
                0x20001320                Accelerometer_Range
                0x20001324                Gyro_Sensitivity_250s
                0x20001328                x
                0x2000132c                IKROT_COXA2
                0x20001334                IKROT_COXA1
                0x2000133c                IKROT_COXA
                0x20001344                DELTA_TEST
                0x20001348                DX_count
                0x2000134c                GERAK
                0x20001350                NOT_IN_ROOM_STAT
                0x20001354                Flame_Stat
                0x20001358                ping_count
                0x2000135c                PING_ERROR
                0x2000137c                USART_Bluetooth_Count
                0x20001380                USARTFlameDigi_Counter
                0x20001384                USARTFlame_Counter
                0x20001388                USART_Count
                0x2000138c                Ping
                0x200013b0                FIRE
                0x200013b4                suhu_ruang
                0x200013b8                temp
                0x200013bc                i
                0x200013c0                panas
                0x200013c4                hitung
                0x200013c5                fight
                0x200013c6                sensor_UV_lock
                0x200013c8                sudut_servo
                0x200013cc                led_snd_off_counter
                0x200013ce                led_off_counter
                0x200013d0                UV_R2FLAG_INACTIVE
                0x200013d4                UV_R2FLAG
                0x200013d8                UV_Lock
                0x200013dc                BW_START
                0x200013de                BW_Sound_Activate
                0x200013e0                FOLLOW_MARK_R
                0x200013e4                FOLLOW_MARK_L
                0x200013e8                CAT_IR2
                0x200013ec                CAT_IR1
                0x200013f0                CAT_DIACTIVATED
                0x200013f4                CAT_DETECTOR
                0x200013f8                CAT_NOT_DETECTED
                0x200013fc                CAT_FLAG_C
                0x20001400                CAT_FLAG_B
                0x20001404                CAT_FLAG_A
                0x20001408                CAT_FLAG
                0x2000140c                NO_SHIFT
                0x20001410                CAT_SHIFT_FOLLOW
                0x20001414                CAT_FOUND
                0x2000141c                FIRE_PUTOFF
                0x20001420                EXTINGUISHED_FIRE
                0x20001424                TANDA_FOLLOW
                0x20001430                LOCATION_CORRIDOR
                0x20001434                START_MODE
                0x20001438                BW_CROSS_MODE
                0x2000143c                ZONE
                0x20001440                INITIAL_ZONE
                0x20001444                CANDLE_CIRCLE_FLAG
                0x20001448                M_TOTAL_SUM
                0x2000144c                M_THRESHOLD
                0x20001450                M_sum_white
                0x20001454                M_sum_blue
                0x20001458                M_sum_red
                0x2000145c                F_TOTAL_SUM
                0x20001460                F_THRESHOLD
                0x20001464                F_sum_white
                0x20001468                F_sum_blue
                0x2000146c                F_sum_red
                0x20001470                M_DETECTED_COLOUR
                0x20001474                F_DETECTED_COLOUR
                0x20001478                COLOUR_BLACK
 .bss           0x2000147c        0x4 ..\obj\bw_dynamixel_ax_12a.o
 .bss           0x20001480        0x2 ..\obj\bw_usart_comm.o
 .bss           0x20001482        0x1 ..\obj\bw_ping_receiver.o
 *fill*         0x20001483        0x1 
 .bss           0x20001484       0xf0 ..\obj\bw2017_algorithm.o
 .bss           0x20001574        0x4 ..\obj\syscalls.o
 .bss           0x20001578        0x4 ..\obj\bw_systick_delay.o
 .bss.__malloc_max_total_mem
                0x2000157c        0x4 C:\Program Files (x86)\GNU Tools ARM Embedded\4.8 2014q1\arm-none-eabi\lib\armv7e-m\libc.a(lib_a-mallocr.o)
                0x2000157c                __malloc_max_total_mem
 .bss.__malloc_max_sbrked_mem
                0x20001580        0x4 C:\Program Files (x86)\GNU Tools ARM Embedded\4.8 2014q1\arm-none-eabi\lib\armv7e-m\libc.a(lib_a-mallocr.o)
                0x20001580                __malloc_max_sbrked_mem
 .bss.__malloc_top_pad
                0x20001584        0x4 C:\Program Files (x86)\GNU Tools ARM Embedded\4.8 2014q1\arm-none-eabi\lib\armv7e-m\libc.a(lib_a-mallocr.o)
                0x20001584                __malloc_top_pad
 .bss.__malloc_current_mallinfo
                0x20001588       0x28 C:\Program Files (x86)\GNU Tools ARM Embedded\4.8 2014q1\arm-none-eabi\lib\armv7e-m\libc.a(lib_a-mallocr.o)
                0x20001588                __malloc_current_mallinfo
 *(COMMON)
 COMMON         0x200015b0      0x864 ..\obj\bw_articulated_manipulator.o
                0x200015b0                lcd
                0x200015c0                RWS_Byte
                0x200015c4                GPIO_I2C
                0x200015cc                TIM_TimeBaseStructure
                0x200015d8                DynamixelPos
                0x20001620                PID_DFL_R_OLD
                0x20001678                Load_Long_Byte
                0x2000167c                Position_Low_Byte
                0x2000167d                Checksum
                0x20001680                BW_CMPS11
                0x200016c0                Speed_Low_Byte
                0x200016c4                jumlahData
                0x200016c8                JointAngle
                0x200016d4                pos_array
                0x2000171c                F_R
                0x20001734                R_R
                0x2000174c                bufferDataTx
                0x200018d4                arm_counter
                0x200018d8                ADC_InitStructure
                0x200018f0                PID_FLAME
                0x20001948                Load_High_Byte
                0x2000194c                move
                0x20001994                I2C_InitStructure
                0x200019a4                PID_F_L
                0x200019fc                Incoming_Byte
                0x20001a00                Moving_Byte
                0x20001a04                Error_Byte
                0x20001a08                gerak
                0x20001a50                PID_FLAME_OLD
                0x20001aa8                Speed_High_Byte
                0x20001aa9                Direction_Pin
                0x20001aaa                Position_High_Byte
                0x20001aac                TIM_OCInitStructure
                0x20001ac0                F_L
                0x20001ad8                Speed_Long_Byte
                0x20001adc                PID_DFL_R
                0x20001b34                Position_Long_Byte
                0x20001b38                Voltage_Byte
                0x20001b3c                PID_F_R
                0x20001b94                outServo
                0x20001bdc                GPIO_InitStructure
                0x20001be4                USART_InitStructure
                0x20001bf4                Time_Counter
                0x20001bf8                PID_DFL_L_OLD
                0x20001c50                Load_Low_Byte
                0x20001c54                M_L
                0x20001c6c                NVIC_InitStructure
                0x20001c70                PID_F_R_OLD
                0x20001cc8                R_L
                0x20001ce0                CALC_EN
                0x20001ce4                speed_array
                0x20001d2c                ADC_CommonInitStructure
                0x20001d3c                temp_angle
                0x20001d48                Temperature_Byte
                0x20001d4c                PID_DFL_L
                0x20001da4                M_R
                0x20001dbc                PID_F_L_OLD
 COMMON         0x20001e14     0x2ca0 ..\obj\bw_global_var.o
                0x20001e14                index_servo3
                0x20001e18                HOME
                0x20001e1c                ROOM4A_FLAG
                0x20001e20                REAR
                0x20001e24                I2C2_DATA
                0x20001e30                Defuzzy_follow_kanan
                0x20001e34                ROOM4_FLAG
                0x20001e38                R4A_KIRI_H
                0x20001e3c                leg
                0x20001e40                R4B_THRESHOLD_MIDDLE
                0x20001e44                b
                0x20001e48                R1BC_L
                0x20001e4c                DATA
                0x20001e50                START_MIDDLE
                0x20001e54                ROOM4B_EXIT_FLAG
                0x20001e58                dummy_correct
                0x20001ea0                selisih_kanan
                0x20001ea4                YAW_IMU
                0x20001ea8                Gyro_Mult
                0x20001eac                ARM_CCR2_Val
                0x20001eb0                FOLLOW_FLAG
                0x20001eb4                c4
                0x20001eb8                START_MID_L
                0x20001ebc                EXIT_FLAG
                0x20001ec0                c2
                0x20001ec4                INFRARED
                0x20001ee8                ROLL_IMU
                0x20001eec                Defuzzy_follow_kiri
                0x20001ef0                final_angel
                0x20001ef8                MIDDLE
                0x20001efc                FRONT
                0x20001f00                R4A_KANAN_H
                0x20001f04                PING_AL
                0x20001f08                SHIFT_ALGORITHM_FLAG
                0x20001f0c                selisih
                0x20001f10                FOLLOW_CALC
                0x20001f14                data1_lcd
                0x20001f24                PING_RR
                0x20001f28                PING_L
                0x20001f2c                phi
                0x20001f44                CMPS11_Angle
                0x20001f48                R4B_THRESHOLD_LOWER
                0x20001f4c                Calibration_Status
                0x20001f50                sudut_awal
                0x20001f98                R4A_SERONG_KIRI_L
                0x20001f9c                PWM_FIRE
                0x20001fa0                SP_FIRE_1B
                0x20001fa4                ACCEL_DEG
                0x20001fa8                nCount
                0x20001fac                R4B_SERONG_KIRI_H
                0x20001fb0                A_body
                0x20001fb4                FLAME_SENSOR
                0x20001fbc                sudut_tahap1
                0x20002004                selisih_CMPS
                0x20002008                ROOM4A_CAT_AVOIDER
                0x2000200c                R4B_SERONG_KANAN_L
                0x20002010                final_speed
                0x20002014                PITCH_IMU
                0x20002018                R4AB_THRESHOLD_MIDDLE
                0x2000201c                COLOUR_STAT
                0x20002020                I2C1_DATA
                0x2000202c                Lsem
                0x20002030                z_A
                0x20002078                TRACER_FLAG
                0x2000207c                ERROR_DATA
                0x20002090                VALUE
                0x20002094                FLAME_SIDE
                0x20002098                SHARP_BR_BUFFER
                0x2000209c                suhu_pixel
                0x200020a4                FOLLOW_BREAK
                0x200020a8                R4A_TENGAH_L
                0x200020ac                tampil_adc
                0x200020bc                epsilon
                0x200020d4                R4B_THRESHOLD_UPPER
                0x200020d8                pixel
                0x200020e4                R4AB_THRESHOLD_UPPER
                0x200020e8                Count
                0x200020ec                PING_AR
                0x200020f0                ROOM4B_FLAG
                0x200020f4                c1
                0x200020f8                TRACER_IN_BUMPER
                0x200020fc                R4B_SERONG_KANAN_H
                0x20002100                I2C3_DATA
                0x2000210c                ARM_CCR3_Val
                0x20002110                R4A_KANAN_L
                0x20002114                R4A_KIRI_L
                0x20002118                c
                0x20002119                v
                0x2000211c                leg_next
                0x20002134                M_TRACER
                0x20002138                R4A_SERONG_KIRI_H
                0x2000213c                R1BC_H
                0x20002140                SHARP_BL_BUFFER
                0x20002144                sudut_target
                0x2000218c                rule
                0x20002198                A_leg
                0x200021b0                M_sum_green
                0x200021b4                Acce_Mult
                0x200021b8                pembagi
                0x200021bc                F_TRACER
                0x200021c0                index_servo2
                0x200021c4                data2_lcd
                0x200021d4                R4AB_THRESHOLD_LOWER
                0x200021d8                y
                0x200021dc                command_code
                0x200021e1                d
                0x200021e4                SP_FIRE_1C
                0x200021e8                PrescalerValue
                0x200021ec                ARM_CCR1_Val
                0x200021f0                R4B_TENGAH_L
                0x200021f4                PING_R
                0x200021f8                UV_state
                0x200021fc                GYRO_DEG
                0x20002200                SP_FIRE_R3
                0x20002204                ROOM1A_SP_EXIT_FLAG
                0x20002208                temp_var
                0x2000220c                sudut_tahap2
                0x20002254                rot_switch_mode
                0x20002258                P_body
                0x2000225c                F_sum_green
                0x20002260                PING_RL
                0x20002264                beta
                0x2000227c                buf
                0x2000228c                R4B_TENGAH_H
                0x20002290                y_A
                0x200022d8                c3
                0x200022dc                jarak
                0x200022f0                PING_F
                0x200022f4                R4A_SERONG_KANAN_L
                0x200022f8                speed_cnt
                0x200022fc                Defuzzy_foward
                0x20002300                SHARP_FL_BUFFER
                0x20002304                tcs3200
                0x20002308                R4A_THRESHOLD_LOWER
                0x2000230c                epsilon_body
                0x20002310                REVERSE_FLAG
                0x20002314                SHARP
                0x20002324                a
                0x20002328                PING_RE
                0x2000232c                P_leg
                0x20002344                lambpsi
                0x2000235c                regs
                0x20002360                R1BC_THRESHOLD_MIDDLE
                0x20002364                ADCResult
                0x20002368                R4A_THRESHOLD_UPPER
                0x2000236c                START_MID_H
                0x20002370                ww
                0x20002388                R4A_SERONG_KANAN_H
                0x2000238c                R4B_SERONG_KIRI_L
                0x20002390                counts
                0x20002394                index_bantu
                0x20002398                R4A_TENGAH_H
                0x2000239c                temp_var2
                0x200023a0                received_string
                0x20004ab0                R4A_THRESHOLD_MIDDLE
 COMMON         0x20004ab4        0x6 ..\obj\bw_i2c_lcd.o
                0x20004ab4                displaycontrol
                0x20004ab5                Addr
                0x20004ab6                displayfunction
                0x20004ab7                backlight
                0x20004ab8                numlines
                0x20004ab9                displaymode
 *fill*         0x20004aba        0x2 
 COMMON         0x20004abc        0x4 C:\Program Files (x86)\GNU Tools ARM Embedded\4.8 2014q1\arm-none-eabi\lib\armv7e-m\libc.a(lib_a-reent.o)
                0x20004abc                errno
                0x20004ac0                . = ALIGN (0x4)
                0x20004ac0                __bss_end__ = .
                0x20004ac0                _ebss = __bss_end__

.heap           0x20004ac0        0x0
                0x20004ac0                __end__ = .
                0x20004ac0                _end = __end__
                0x20004ac0                end = __end__
 *(.heap*)
                0x20004ac0                __HeapLimit = .

.co_stack       0x20004ac0      0x800 load address 0x08045504
                0x20004ac0                . = ALIGN (0x8)
 *(.co_stack .co_stack.*)
 .co_stack      0x20004ac0      0x800 ..\obj\startup_stm32f4xx.o
                0x20004ac0                pulStack
                0x20020000                __StackTop = (ORIGIN (ram) + 0x20000)
                0x2001f800                __StackLimit = (__StackTop - SIZEOF (.co_stack))
                0x20020000                PROVIDE (__stack, __StackTop)
                0x00000001                ASSERT ((__StackLimit >= __HeapLimit), region ram  overflowed with stack)
LOAD ..\obj\bw_articulated_manipulator.o
LOAD ..\obj\bw_global_var.o
LOAD ..\obj\bw_dynamixel_ax_12a.o
LOAD ..\obj\BW_Phoenix_Code.o
LOAD ..\obj\bw_usart_comm.o
LOAD ..\obj\bw_mpu6050.o
LOAD ..\obj\bw_i2c_lcd.o
LOAD ..\obj\BW_I2C_EEPROM.o
LOAD ..\obj\stm32f4xx_usart.o
LOAD ..\obj\bw_hexapod_cmd.o
LOAD ..\obj\bw_rotary_switch.o
LOAD ..\obj\bw_user_interface.o
LOAD ..\obj\BW_Phoenix_Driver_AX12.o
LOAD ..\obj\startup_stm32f4xx.o
LOAD ..\obj\main.o
LOAD ..\obj\stm32f4xx_rcc.o
LOAD ..\obj\bw_ping_receiver.o
LOAD ..\obj\bw_sound_activation.o
LOAD ..\obj\bw_extinguisher.o
LOAD ..\obj\stm32f4xx_adc.o
LOAD ..\obj\bw_bumper.o
LOAD ..\obj\bw2017_algorithm.o
LOAD ..\obj\bw_mpu6050_receiver.o
LOAD ..\obj\bw_bldc_fan.o
LOAD ..\obj\bw_infrared_proximity.o
LOAD ..\obj\bw_pid_controller.o
LOAD ..\obj\bw_utilities.o
LOAD ..\obj\stm32f4xx_gpio.o
LOAD ..\obj\bw_dynamixel_xl_320.o
LOAD ..\obj\system_stm32f4xx.o
LOAD ..\obj\syscalls.o
LOAD ..\obj\bw_UV-TRON.o
LOAD ..\obj\bw_systick_delay.o
LOAD ..\obj\bw_dynamixel_hexapod_cmd.o
LOAD ..\obj\bw_tpa_servo.o
LOAD ..\obj\bw_interrupt_monitor.o
LOAD ..\obj\stm32f4xx_i2c.o
LOAD ..\obj\bw_lcd.o
LOAD ..\obj\misc.o
LOAD ..\obj\bw_cmps11.o
LOAD ..\obj\bw_gy_85.o
LOAD ..\obj\bw_tcs3200_receiver.o
LOAD ..\obj\stm32f4xx_tim.o
LOAD ..\obj\bw_flame_sensor.o
LOAD C:\Program Files (x86)\GNU Tools ARM Embedded\4.8 2014q1\arm-none-eabi\lib\armv7e-m\libm.a
LOAD c:/program files (x86)/gnu tools arm embedded/4.8 2014q1/bin/../lib/gcc/arm-none-eabi/4.8.3/armv7e-m\libgcc.a
LOAD C:\Program Files (x86)\GNU Tools ARM Embedded\4.8 2014q1\arm-none-eabi\lib\armv7e-m\libc.a
START GROUP
LOAD c:/program files (x86)/gnu tools arm embedded/4.8 2014q1/bin/../lib/gcc/arm-none-eabi/4.8.3/armv7e-m\libgcc.a
LOAD C:\Program Files (x86)\GNU Tools ARM Embedded\4.8 2014q1\arm-none-eabi\lib\armv7e-m\libg.a
LOAD C:\Program Files (x86)\GNU Tools ARM Embedded\4.8 2014q1\arm-none-eabi\lib\armv7e-m\libc.a
END GROUP
OUTPUT(BW_2.17_Main_Controller_Ver.1.0.elf elf32-littlearm)

.debug_info     0x00000000    0xadcc7
 .debug_info    0x00000000     0x1098 ..\obj\bw_articulated_manipulator.o
 .debug_info    0x00001098     0x3b38 ..\obj\bw_global_var.o
 .debug_info    0x00004bd0     0x297b ..\obj\bw_dynamixel_ax_12a.o
 .debug_info    0x0000754b     0x2133 ..\obj\bw_usart_comm.o
 .debug_info    0x0000967e     0x1c10 ..\obj\bw_i2c_lcd.o
 .debug_info    0x0000b28e     0x355d ..\obj\BW_I2C_EEPROM.o
 .debug_info    0x0000e7eb      0xb41 ..\obj\stm32f4xx_usart.o
 .debug_info    0x0000f32c     0xfdec ..\obj\bw_hexapod_cmd.o
 .debug_info    0x0001f118     0x1425 ..\obj\bw_rotary_switch.o
 .debug_info    0x0002053d     0x1070 ..\obj\bw_user_interface.o
 .debug_info    0x000215ad      0x10a ..\obj\startup_stm32f4xx.o
 .debug_info    0x000216b7     0x2580 ..\obj\main.o
 .debug_info    0x00023c37      0xc8c ..\obj\stm32f4xx_rcc.o
 .debug_info    0x000248c3     0x19d1 ..\obj\bw_ping_receiver.o
 .debug_info    0x00026294      0xe7a ..\obj\bw_sound_activation.o
 .debug_info    0x0002710e     0x1fd8 ..\obj\bw_extinguisher.o
 .debug_info    0x000290e6      0xc84 ..\obj\stm32f4xx_adc.o
 .debug_info    0x00029d6a     0x10ed ..\obj\bw_bumper.o
 .debug_info    0x0002ae57    0x42674 ..\obj\bw2017_algorithm.o
 .debug_info    0x0006d4cb     0x11f2 ..\obj\bw_infrared_proximity.o
 .debug_info    0x0006e6bd     0x2188 ..\obj\bw_pid_controller.o
 .debug_info    0x00070845      0xd5a ..\obj\bw_utilities.o
 .debug_info    0x0007159f      0x7d6 ..\obj\stm32f4xx_gpio.o
 .debug_info    0x00071d75      0x5b7 ..\obj\system_stm32f4xx.o
 .debug_info    0x0007232c      0x3ed ..\obj\syscalls.o
 .debug_info    0x00072719      0xeba ..\obj\bw_UV-TRON.o
 .debug_info    0x000735d3      0x763 ..\obj\bw_systick_delay.o
 .debug_info    0x00073d36    0x297e9 ..\obj\bw_dynamixel_hexapod_cmd.o
 .debug_info    0x0009d51f     0x2c31 ..\obj\bw_tpa_servo.o
 .debug_info    0x000a0150      0xbc1 ..\obj\stm32f4xx_i2c.o
 .debug_info    0x000a0d11     0x15aa ..\obj\bw_lcd.o
 .debug_info    0x000a22bb      0x543 ..\obj\misc.o
 .debug_info    0x000a27fe     0x3a7b ..\obj\bw_cmps11.o
 .debug_info    0x000a6279     0x4050 ..\obj\bw_tcs3200_receiver.o
 .debug_info    0x000aa2c9     0x21b2 ..\obj\stm32f4xx_tim.o
 .debug_info    0x000ac47b     0x184c ..\obj\bw_flame_sensor.o

.debug_abbrev   0x00000000     0x554b
 .debug_abbrev  0x00000000      0x205 ..\obj\bw_articulated_manipulator.o
 .debug_abbrev  0x00000205      0x139 ..\obj\bw_global_var.o
 .debug_abbrev  0x0000033e      0x366 ..\obj\bw_dynamixel_ax_12a.o
 .debug_abbrev  0x000006a4      0x31f ..\obj\bw_usart_comm.o
 .debug_abbrev  0x000009c3      0x31c ..\obj\bw_i2c_lcd.o
 .debug_abbrev  0x00000cdf      0x2c9 ..\obj\BW_I2C_EEPROM.o
 .debug_abbrev  0x00000fa8      0x1cd ..\obj\stm32f4xx_usart.o
 .debug_abbrev  0x00001175      0x310 ..\obj\bw_hexapod_cmd.o
 .debug_abbrev  0x00001485      0x23e ..\obj\bw_rotary_switch.o
 .debug_abbrev  0x000016c3      0x229 ..\obj\bw_user_interface.o
 .debug_abbrev  0x000018ec       0xd9 ..\obj\startup_stm32f4xx.o
 .debug_abbrev  0x000019c5      0x2aa ..\obj\main.o
 .debug_abbrev  0x00001c6f      0x209 ..\obj\stm32f4xx_rcc.o
 .debug_abbrev  0x00001e78      0x2b1 ..\obj\bw_ping_receiver.o
 .debug_abbrev  0x00002129      0x217 ..\obj\bw_sound_activation.o
 .debug_abbrev  0x00002340      0x2ce ..\obj\bw_extinguisher.o
 .debug_abbrev  0x0000260e      0x1c9 ..\obj\stm32f4xx_adc.o
 .debug_abbrev  0x000027d7      0x243 ..\obj\bw_bumper.o
 .debug_abbrev  0x00002a1a      0x41e ..\obj\bw2017_algorithm.o
 .debug_abbrev  0x00002e38      0x243 ..\obj\bw_infrared_proximity.o
 .debug_abbrev  0x0000307b      0x2ca ..\obj\bw_pid_controller.o
 .debug_abbrev  0x00003345      0x1de ..\obj\bw_utilities.o
 .debug_abbrev  0x00003523      0x1e3 ..\obj\stm32f4xx_gpio.o
 .debug_abbrev  0x00003706      0x15f ..\obj\system_stm32f4xx.o
 .debug_abbrev  0x00003865       0xf1 ..\obj\syscalls.o
 .debug_abbrev  0x00003956      0x223 ..\obj\bw_UV-TRON.o
 .debug_abbrev  0x00003b79      0x1dc ..\obj\bw_systick_delay.o
 .debug_abbrev  0x00003d55      0x378 ..\obj\bw_dynamixel_hexapod_cmd.o
 .debug_abbrev  0x000040cd      0x3ee ..\obj\bw_tpa_servo.o
 .debug_abbrev  0x000044bb      0x1cf ..\obj\stm32f4xx_i2c.o
 .debug_abbrev  0x0000468a      0x27e ..\obj\bw_lcd.o
 .debug_abbrev  0x00004908      0x154 ..\obj\misc.o
 .debug_abbrev  0x00004a5c      0x34c ..\obj\bw_cmps11.o
 .debug_abbrev  0x00004da8      0x2a6 ..\obj\bw_tcs3200_receiver.o
 .debug_abbrev  0x0000504e      0x277 ..\obj\stm32f4xx_tim.o
 .debug_abbrev  0x000052c5      0x286 ..\obj\bw_flame_sensor.o

.debug_loc      0x00000000    0x26825
 .debug_loc     0x00000000       0x4f ..\obj\bw_articulated_manipulator.o
 .debug_loc     0x0000004f      0xcee ..\obj\bw_dynamixel_ax_12a.o
 .debug_loc     0x00000d3d      0x1f7 ..\obj\bw_usart_comm.o
 .debug_loc     0x00000f34      0x5cb ..\obj\bw_i2c_lcd.o
 .debug_loc     0x000014ff      0x7c1 ..\obj\BW_I2C_EEPROM.o
 .debug_loc     0x00001cc0      0x838 ..\obj\stm32f4xx_usart.o
 .debug_loc     0x000024f8      0xefc ..\obj\bw_hexapod_cmd.o
 .debug_loc     0x000033f4       0x99 ..\obj\bw_user_interface.o
 .debug_loc     0x0000348d       0x22 ..\obj\startup_stm32f4xx.o
 .debug_loc     0x000034af       0x1f ..\obj\main.o
 .debug_loc     0x000034ce      0xa8a ..\obj\stm32f4xx_rcc.o
 .debug_loc     0x00003f58       0xbb ..\obj\bw_ping_receiver.o
 .debug_loc     0x00004013      0x18c ..\obj\bw_extinguisher.o
 .debug_loc     0x0000419f      0xad1 ..\obj\stm32f4xx_adc.o
 .debug_loc     0x00004c70     0x64e2 ..\obj\bw2017_algorithm.o
 .debug_loc     0x0000b152       0x78 ..\obj\bw_pid_controller.o
 .debug_loc     0x0000b1ca       0x21 ..\obj\bw_utilities.o
 .debug_loc     0x0000b1eb      0x2d2 ..\obj\stm32f4xx_gpio.o
 .debug_loc     0x0000b4bd      0x11f ..\obj\system_stm32f4xx.o
 .debug_loc     0x0000b5dc      0x108 ..\obj\syscalls.o
 .debug_loc     0x0000b6e4       0x82 ..\obj\bw_systick_delay.o
 .debug_loc     0x0000b766    0x16b89 ..\obj\bw_dynamixel_hexapod_cmd.o
 .debug_loc     0x000222ef      0x96d ..\obj\bw_tpa_servo.o
 .debug_loc     0x00022c5c      0x745 ..\obj\stm32f4xx_i2c.o
 .debug_loc     0x000233a1      0x716 ..\obj\bw_lcd.o
 .debug_loc     0x00023ab7      0x199 ..\obj\misc.o
 .debug_loc     0x00023c50      0xb7c ..\obj\bw_cmps11.o
 .debug_loc     0x000247cc      0x463 ..\obj\bw_tcs3200_receiver.o
 .debug_loc     0x00024c2f     0x1b54 ..\obj\stm32f4xx_tim.o
 .debug_loc     0x00026783       0xa2 ..\obj\bw_flame_sensor.o

.debug_aranges  0x00000000     0x1f90
 .debug_aranges
                0x00000000       0x38 ..\obj\bw_articulated_manipulator.o
 .debug_aranges
                0x00000038       0x18 ..\obj\bw_global_var.o
 .debug_aranges
                0x00000050       0xb8 ..\obj\bw_dynamixel_ax_12a.o
 .debug_aranges
                0x00000108       0x80 ..\obj\bw_usart_comm.o
 .debug_aranges
                0x00000188       0xd0 ..\obj\bw_i2c_lcd.o
 .debug_aranges
                0x00000258       0x78 ..\obj\BW_I2C_EEPROM.o
 .debug_aranges
                0x000002d0      0x100 ..\obj\stm32f4xx_usart.o
 .debug_aranges
                0x000003d0      0x1b8 ..\obj\bw_hexapod_cmd.o
 .debug_aranges
                0x00000588       0x30 ..\obj\bw_rotary_switch.o
 .debug_aranges
                0x000005b8       0x78 ..\obj\bw_user_interface.o
 .debug_aranges
                0x00000630       0x28 ..\obj\startup_stm32f4xx.o
 .debug_aranges
                0x00000658       0x30 ..\obj\main.o
 .debug_aranges
                0x00000688      0x178 ..\obj\stm32f4xx_rcc.o
 .debug_aranges
                0x00000800       0x50 ..\obj\bw_ping_receiver.o
 .debug_aranges
                0x00000850       0x28 ..\obj\bw_sound_activation.o
 .debug_aranges
                0x00000878       0x70 ..\obj\bw_extinguisher.o
 .debug_aranges
                0x000008e8      0x148 ..\obj\stm32f4xx_adc.o
 .debug_aranges
                0x00000a30       0x38 ..\obj\bw_bumper.o
 .debug_aranges
                0x00000a68      0x7d0 ..\obj\bw2017_algorithm.o
 .debug_aranges
                0x00001238       0x40 ..\obj\bw_infrared_proximity.o
 .debug_aranges
                0x00001278       0xd8 ..\obj\bw_pid_controller.o
 .debug_aranges
                0x00001350       0x20 ..\obj\bw_utilities.o
 .debug_aranges
                0x00001370       0x88 ..\obj\stm32f4xx_gpio.o
 .debug_aranges
                0x000013f8       0x28 ..\obj\system_stm32f4xx.o
 .debug_aranges
                0x00001420       0x60 ..\obj\syscalls.o
 .debug_aranges
                0x00001480       0x40 ..\obj\bw_UV-TRON.o
 .debug_aranges
                0x000014c0       0x48 ..\obj\bw_systick_delay.o
 .debug_aranges
                0x00001508      0x270 ..\obj\bw_dynamixel_hexapod_cmd.o
 .debug_aranges
                0x00001778       0xb0 ..\obj\bw_tpa_servo.o
 .debug_aranges
                0x00001828      0x120 ..\obj\stm32f4xx_i2c.o
 .debug_aranges
                0x00001948      0x100 ..\obj\bw_lcd.o
 .debug_aranges
                0x00001a48       0x40 ..\obj\misc.o
 .debug_aranges
                0x00001a88      0x138 ..\obj\bw_cmps11.o
 .debug_aranges
                0x00001bc0       0xa8 ..\obj\bw_tcs3200_receiver.o
 .debug_aranges
                0x00001c68      0x2e8 ..\obj\stm32f4xx_tim.o
 .debug_aranges
                0x00001f50       0x40 ..\obj\bw_flame_sensor.o

.debug_ranges   0x00000000     0x1ed0
 .debug_ranges  0x00000000       0x28 ..\obj\bw_articulated_manipulator.o
 .debug_ranges  0x00000028       0xa8 ..\obj\bw_dynamixel_ax_12a.o
 .debug_ranges  0x000000d0       0x70 ..\obj\bw_usart_comm.o
 .debug_ranges  0x00000140       0xc0 ..\obj\bw_i2c_lcd.o
 .debug_ranges  0x00000200       0x68 ..\obj\BW_I2C_EEPROM.o
 .debug_ranges  0x00000268       0xf0 ..\obj\stm32f4xx_usart.o
 .debug_ranges  0x00000358      0x1a8 ..\obj\bw_hexapod_cmd.o
 .debug_ranges  0x00000500       0x20 ..\obj\bw_rotary_switch.o
 .debug_ranges  0x00000520       0x68 ..\obj\bw_user_interface.o
 .debug_ranges  0x00000588       0x18 ..\obj\startup_stm32f4xx.o
 .debug_ranges  0x000005a0       0x20 ..\obj\main.o
 .debug_ranges  0x000005c0      0x168 ..\obj\stm32f4xx_rcc.o
 .debug_ranges  0x00000728       0x40 ..\obj\bw_ping_receiver.o
 .debug_ranges  0x00000768       0x18 ..\obj\bw_sound_activation.o
 .debug_ranges  0x00000780       0x60 ..\obj\bw_extinguisher.o
 .debug_ranges  0x000007e0      0x138 ..\obj\stm32f4xx_adc.o
 .debug_ranges  0x00000918       0x28 ..\obj\bw_bumper.o
 .debug_ranges  0x00000940      0x8d0 ..\obj\bw2017_algorithm.o
 .debug_ranges  0x00001210       0x30 ..\obj\bw_infrared_proximity.o
 .debug_ranges  0x00001240       0xc8 ..\obj\bw_pid_controller.o
 .debug_ranges  0x00001308       0x10 ..\obj\bw_utilities.o
 .debug_ranges  0x00001318       0x78 ..\obj\stm32f4xx_gpio.o
 .debug_ranges  0x00001390       0x18 ..\obj\system_stm32f4xx.o
 .debug_ranges  0x000013a8       0x50 ..\obj\syscalls.o
 .debug_ranges  0x000013f8       0x30 ..\obj\bw_UV-TRON.o
 .debug_ranges  0x00001428       0x38 ..\obj\bw_systick_delay.o
 .debug_ranges  0x00001460      0x260 ..\obj\bw_dynamixel_hexapod_cmd.o
 .debug_ranges  0x000016c0      0x118 ..\obj\bw_tpa_servo.o
 .debug_ranges  0x000017d8      0x110 ..\obj\stm32f4xx_i2c.o
 .debug_ranges  0x000018e8       0xf0 ..\obj\bw_lcd.o
 .debug_ranges  0x000019d8       0x30 ..\obj\misc.o
 .debug_ranges  0x00001a08      0x128 ..\obj\bw_cmps11.o
 .debug_ranges  0x00001b30       0x98 ..\obj\bw_tcs3200_receiver.o
 .debug_ranges  0x00001bc8      0x2d8 ..\obj\stm32f4xx_tim.o
 .debug_ranges  0x00001ea0       0x30 ..\obj\bw_flame_sensor.o

.debug_line     0x00000000    0x1caf8
 .debug_line    0x00000000      0x547 ..\obj\bw_articulated_manipulator.o
 .debug_line    0x00000547      0x492 ..\obj\bw_global_var.o
 .debug_line    0x000009d9      0x865 ..\obj\bw_dynamixel_ax_12a.o
 .debug_line    0x0000123e      0x705 ..\obj\bw_usart_comm.o
 .debug_line    0x00001943      0x772 ..\obj\bw_i2c_lcd.o
 .debug_line    0x000020b5      0x88b ..\obj\BW_I2C_EEPROM.o
 .debug_line    0x00002940      0x637 ..\obj\stm32f4xx_usart.o
 .debug_line    0x00002f77     0x17c2 ..\obj\bw_hexapod_cmd.o
 .debug_line    0x00004739      0x58c ..\obj\bw_rotary_switch.o
 .debug_line    0x00004cc5      0x5b7 ..\obj\bw_user_interface.o
 .debug_line    0x0000527c      0x102 ..\obj\startup_stm32f4xx.o
 .debug_line    0x0000537e      0x97a ..\obj\main.o
 .debug_line    0x00005cf8      0x718 ..\obj\stm32f4xx_rcc.o
 .debug_line    0x00006410      0x698 ..\obj\bw_ping_receiver.o
 .debug_line    0x00006aa8      0x52f ..\obj\bw_sound_activation.o
 .debug_line    0x00006fd7      0x823 ..\obj\bw_extinguisher.o
 .debug_line    0x000077fa      0x6f9 ..\obj\stm32f4xx_adc.o
 .debug_line    0x00007ef3      0x577 ..\obj\bw_bumper.o
 .debug_line    0x0000846a     0xa288 ..\obj\bw2017_algorithm.o
 .debug_line    0x000126f2      0x579 ..\obj\bw_infrared_proximity.o
 .debug_line    0x00012c6b      0xc88 ..\obj\bw_pid_controller.o
 .debug_line    0x000138f3      0x4d5 ..\obj\bw_utilities.o
 .debug_line    0x00013dc8      0x4f8 ..\obj\stm32f4xx_gpio.o
 .debug_line    0x000142c0      0x2a1 ..\obj\system_stm32f4xx.o
 .debug_line    0x00014561      0x1d1 ..\obj\syscalls.o
 .debug_line    0x00014732      0x53e ..\obj\bw_UV-TRON.o
 .debug_line    0x00014c70      0x385 ..\obj\bw_systick_delay.o
 .debug_line    0x00014ff5     0x3aa6 ..\obj\bw_dynamixel_hexapod_cmd.o
 .debug_line    0x00018a9b      0x96d ..\obj\bw_tpa_servo.o
 .debug_line    0x00019408      0x676 ..\obj\stm32f4xx_i2c.o
 .debug_line    0x00019a7e      0x712 ..\obj\bw_lcd.o
 .debug_line    0x0001a190      0x3fc ..\obj\misc.o
 .debug_line    0x0001a58c      0xa5f ..\obj\bw_cmps11.o
 .debug_line    0x0001afeb      0x8f1 ..\obj\bw_tcs3200_receiver.o
 .debug_line    0x0001b8dc      0xbad ..\obj\stm32f4xx_tim.o
 .debug_line    0x0001c489      0x66f ..\obj\bw_flame_sensor.o

.debug_str      0x00000000     0xa2ff
 .debug_str     0x00000000      0xd25 ..\obj\bw_articulated_manipulator.o
                                0xddb (size before relaxing)
 .debug_str     0x00000d25     0x2351 ..\obj\bw_global_var.o
                               0x2fe6 (size before relaxing)
 .debug_str     0x00003076      0x9ad ..\obj\bw_dynamixel_ax_12a.o
                               0x179d (size before relaxing)
 .debug_str     0x00003a23      0x1c1 ..\obj\bw_usart_comm.o
                               0x1560 (size before relaxing)
 .debug_str     0x00003be4      0x3e9 ..\obj\bw_i2c_lcd.o
                               0x1065 (size before relaxing)
 .debug_str     0x00003fcd      0x1f0 ..\obj\BW_I2C_EEPROM.o
                               0x10a7 (size before relaxing)
 .debug_str     0x000041bd      0x44b ..\obj\stm32f4xx_usart.o
                                0x745 (size before relaxing)
 .debug_str     0x00004608      0x5d7 ..\obj\bw_hexapod_cmd.o
                               0x13ca (size before relaxing)
 .debug_str     0x00004bdf      0x1b4 ..\obj\bw_rotary_switch.o
                                0xe28 (size before relaxing)
 .debug_str     0x00004d93      0x17e ..\obj\bw_user_interface.o
                                0xfde (size before relaxing)
 .debug_str     0x00004f11      0x120 ..\obj\startup_stm32f4xx.o
                                0x1c2 (size before relaxing)
 .debug_str     0x00005031      0x3ab ..\obj\main.o
                               0x1279 (size before relaxing)
 .debug_str     0x000053dc      0x5af ..\obj\stm32f4xx_rcc.o
                                0x8c6 (size before relaxing)
 .debug_str     0x0000598b      0x116 ..\obj\bw_ping_receiver.o
                               0x13d2 (size before relaxing)
 .debug_str     0x00005aa1       0xc8 ..\obj\bw_sound_activation.o
                                0xcd6 (size before relaxing)
 .debug_str     0x00005b69      0x25f ..\obj\bw_extinguisher.o
                               0x1068 (size before relaxing)
 .debug_str     0x00005dc8      0x4e6 ..\obj\stm32f4xx_adc.o
                                0x891 (size before relaxing)
 .debug_str     0x000062ae       0xe4 ..\obj\bw_bumper.o
                                0xce0 (size before relaxing)
 .debug_str     0x00006392     0x15bc ..\obj\bw2017_algorithm.o
                               0x3c14 (size before relaxing)
 .debug_str     0x0000794e       0xdf ..\obj\bw_infrared_proximity.o
                                0xcde (size before relaxing)
 .debug_str     0x00007a2d      0x14e ..\obj\bw_pid_controller.o
                               0x1621 (size before relaxing)
 .debug_str     0x00007b7b       0xb5 ..\obj\bw_utilities.o
                                0xc2b (size before relaxing)
 .debug_str     0x00007c30      0x1bc ..\obj\stm32f4xx_gpio.o
                                0x540 (size before relaxing)
 .debug_str     0x00007dec      0x178 ..\obj\system_stm32f4xx.o
                                0x420 (size before relaxing)
 .debug_str     0x00007f64      0x1c9 ..\obj\syscalls.o
                                0x3cb (size before relaxing)
 .debug_str     0x0000812d       0xf3 ..\obj\bw_UV-TRON.o
                                0xce2 (size before relaxing)
 .debug_str     0x00008220      0x16b ..\obj\bw_systick_delay.o
                                0x884 (size before relaxing)
 .debug_str     0x0000838b      0x686 ..\obj\bw_dynamixel_hexapod_cmd.o
                               0x1e63 (size before relaxing)
 .debug_str     0x00008a11      0x1f5 ..\obj\bw_tpa_servo.o
                               0x1255 (size before relaxing)
 .debug_str     0x00008c06      0x2ef ..\obj\stm32f4xx_i2c.o
                                0x704 (size before relaxing)
 .debug_str     0x00008ef5      0x1da ..\obj\bw_lcd.o
                                0xe85 (size before relaxing)
 .debug_str     0x000090cf      0x16d ..\obj\misc.o
                                0x444 (size before relaxing)
 .debug_str     0x0000923c      0x349 ..\obj\bw_cmps11.o
                               0x144c (size before relaxing)
 .debug_str     0x00009585      0x2c2 ..\obj\bw_tcs3200_receiver.o
                               0x1167 (size before relaxing)
 .debug_str     0x00009847      0x9ee ..\obj\stm32f4xx_tim.o
                                0xe74 (size before relaxing)
 .debug_str     0x0000a235       0xca ..\obj\bw_flame_sensor.o
                                0xe56 (size before relaxing)

.comment        0x00000000       0x70
 .comment       0x00000000       0x70 ..\obj\bw_articulated_manipulator.o
                                 0x71 (size before relaxing)
 .comment       0x00000000       0x71 ..\obj\bw_global_var.o
 .comment       0x00000000       0x71 ..\obj\bw_dynamixel_ax_12a.o
 .comment       0x00000000       0x71 ..\obj\bw_usart_comm.o
 .comment       0x00000000       0x71 ..\obj\bw_i2c_lcd.o
 .comment       0x00000000       0x71 ..\obj\BW_I2C_EEPROM.o
 .comment       0x00000000       0x71 ..\obj\stm32f4xx_usart.o
 .comment       0x00000000       0x71 ..\obj\bw_hexapod_cmd.o
 .comment       0x00000000       0x71 ..\obj\bw_rotary_switch.o
 .comment       0x00000000       0x71 ..\obj\bw_user_interface.o
 .comment       0x00000000       0x71 ..\obj\startup_stm32f4xx.o
 .comment       0x00000000       0x71 ..\obj\main.o
 .comment       0x00000000       0x71 ..\obj\stm32f4xx_rcc.o
 .comment       0x00000000       0x71 ..\obj\bw_ping_receiver.o
 .comment       0x00000000       0x71 ..\obj\bw_sound_activation.o
 .comment       0x00000000       0x71 ..\obj\bw_extinguisher.o
 .comment       0x00000000       0x71 ..\obj\stm32f4xx_adc.o
 .comment       0x00000000       0x71 ..\obj\bw_bumper.o
 .comment       0x00000000       0x71 ..\obj\bw2017_algorithm.o
 .comment       0x00000000       0x71 ..\obj\bw_infrared_proximity.o
 .comment       0x00000000       0x71 ..\obj\bw_pid_controller.o
 .comment       0x00000000       0x71 ..\obj\bw_utilities.o
 .comment       0x00000000       0x71 ..\obj\stm32f4xx_gpio.o
 .comment       0x00000000       0x71 ..\obj\system_stm32f4xx.o
 .comment       0x00000000       0x71 ..\obj\syscalls.o
 .comment       0x00000000       0x71 ..\obj\bw_UV-TRON.o
 .comment       0x00000000       0x71 ..\obj\bw_systick_delay.o
 .comment       0x00000000       0x71 ..\obj\bw_dynamixel_hexapod_cmd.o
 .comment       0x00000000       0x71 ..\obj\bw_tpa_servo.o
 .comment       0x00000000       0x71 ..\obj\stm32f4xx_i2c.o
 .comment       0x00000000       0x71 ..\obj\bw_lcd.o
 .comment       0x00000000       0x71 ..\obj\misc.o
 .comment       0x00000000       0x71 ..\obj\bw_cmps11.o
 .comment       0x00000000       0x71 ..\obj\bw_tcs3200_receiver.o
 .comment       0x00000000       0x71 ..\obj\stm32f4xx_tim.o
 .comment       0x00000000       0x71 ..\obj\bw_flame_sensor.o

.ARM.attributes
                0x00000000       0x31
 .ARM.attributes
                0x00000000       0x33 ..\obj\bw_articulated_manipulator.o
 .ARM.attributes
                0x00000033       0x33 ..\obj\bw_global_var.o
 .ARM.attributes
                0x00000066       0x33 ..\obj\bw_dynamixel_ax_12a.o
 .ARM.attributes
                0x00000099       0x33 ..\obj\bw_usart_comm.o
 .ARM.attributes
                0x000000cc       0x33 ..\obj\bw_i2c_lcd.o
 .ARM.attributes
                0x000000ff       0x33 ..\obj\BW_I2C_EEPROM.o
 .ARM.attributes
                0x00000132       0x33 ..\obj\stm32f4xx_usart.o
 .ARM.attributes
                0x00000165       0x33 ..\obj\bw_hexapod_cmd.o
 .ARM.attributes
                0x00000198       0x33 ..\obj\bw_rotary_switch.o
 .ARM.attributes
                0x000001cb       0x33 ..\obj\bw_user_interface.o
 .ARM.attributes
                0x000001fe       0x33 ..\obj\startup_stm32f4xx.o
 .ARM.attributes
                0x00000231       0x33 ..\obj\main.o
 .ARM.attributes
                0x00000264       0x33 ..\obj\stm32f4xx_rcc.o
 .ARM.attributes
                0x00000297       0x33 ..\obj\bw_ping_receiver.o
 .ARM.attributes
                0x000002ca       0x33 ..\obj\bw_sound_activation.o
 .ARM.attributes
                0x000002fd       0x33 ..\obj\bw_extinguisher.o
 .ARM.attributes
                0x00000330       0x33 ..\obj\stm32f4xx_adc.o
 .ARM.attributes
                0x00000363       0x33 ..\obj\bw_bumper.o
 .ARM.attributes
                0x00000396       0x33 ..\obj\bw2017_algorithm.o
 .ARM.attributes
                0x000003c9       0x33 ..\obj\bw_infrared_proximity.o
 .ARM.attributes
                0x000003fc       0x33 ..\obj\bw_pid_controller.o
 .ARM.attributes
                0x0000042f       0x33 ..\obj\bw_utilities.o
 .ARM.attributes
                0x00000462       0x33 ..\obj\stm32f4xx_gpio.o
 .ARM.attributes
                0x00000495       0x33 ..\obj\system_stm32f4xx.o
 .ARM.attributes
                0x000004c8       0x33 ..\obj\syscalls.o
 .ARM.attributes
                0x000004fb       0x33 ..\obj\bw_UV-TRON.o
 .ARM.attributes
                0x0000052e       0x33 ..\obj\bw_systick_delay.o
 .ARM.attributes
                0x00000561       0x33 ..\obj\bw_dynamixel_hexapod_cmd.o
 .ARM.attributes
                0x00000594       0x33 ..\obj\bw_tpa_servo.o
 .ARM.attributes
                0x000005c7       0x33 ..\obj\stm32f4xx_i2c.o
 .ARM.attributes
                0x000005fa       0x33 ..\obj\bw_lcd.o
 .ARM.attributes
                0x0000062d       0x33 ..\obj\misc.o
 .ARM.attributes
                0x00000660       0x33 ..\obj\bw_cmps11.o
 .ARM.attributes
                0x00000693       0x33 ..\obj\bw_tcs3200_receiver.o
 .ARM.attributes
                0x000006c6       0x33 ..\obj\stm32f4xx_tim.o
 .ARM.attributes
                0x000006f9       0x33 ..\obj\bw_flame_sensor.o
 .ARM.attributes
                0x0000072c       0x2e C:\Program Files (x86)\GNU Tools ARM Embedded\4.8 2014q1\arm-none-eabi\lib\armv7e-m\libm.a(lib_a-s_atan.o)
 .ARM.attributes
                0x0000075a       0x2e C:\Program Files (x86)\GNU Tools ARM Embedded\4.8 2014q1\arm-none-eabi\lib\armv7e-m\libm.a(lib_a-s_cos.o)
 .ARM.attributes
                0x00000788       0x2e C:\Program Files (x86)\GNU Tools ARM Embedded\4.8 2014q1\arm-none-eabi\lib\armv7e-m\libm.a(lib_a-s_fabs.o)
 .ARM.attributes
                0x000007b6       0x2e C:\Program Files (x86)\GNU Tools ARM Embedded\4.8 2014q1\arm-none-eabi\lib\armv7e-m\libm.a(lib_a-s_fmax.o)
 .ARM.attributes
                0x000007e4       0x2e C:\Program Files (x86)\GNU Tools ARM Embedded\4.8 2014q1\arm-none-eabi\lib\armv7e-m\libm.a(lib_a-s_fpclassify.o)
 .ARM.attributes
                0x00000812       0x2e C:\Program Files (x86)\GNU Tools ARM Embedded\4.8 2014q1\arm-none-eabi\lib\armv7e-m\libm.a(lib_a-s_sin.o)
 .ARM.attributes
                0x00000840       0x2e C:\Program Files (x86)\GNU Tools ARM Embedded\4.8 2014q1\arm-none-eabi\lib\armv7e-m\libm.a(lib_a-w_acos.o)
 .ARM.attributes
                0x0000086e       0x2e C:\Program Files (x86)\GNU Tools ARM Embedded\4.8 2014q1\arm-none-eabi\lib\armv7e-m\libm.a(lib_a-e_acos.o)
 .ARM.attributes
                0x0000089c       0x2e C:\Program Files (x86)\GNU Tools ARM Embedded\4.8 2014q1\arm-none-eabi\lib\armv7e-m\libm.a(lib_a-e_rem_pio2.o)
 .ARM.attributes
                0x000008ca       0x2e C:\Program Files (x86)\GNU Tools ARM Embedded\4.8 2014q1\arm-none-eabi\lib\armv7e-m\libm.a(lib_a-e_sqrt.o)
 .ARM.attributes
                0x000008f8       0x2e C:\Program Files (x86)\GNU Tools ARM Embedded\4.8 2014q1\arm-none-eabi\lib\armv7e-m\libm.a(lib_a-k_cos.o)
 .ARM.attributes
                0x00000926       0x2e C:\Program Files (x86)\GNU Tools ARM Embedded\4.8 2014q1\arm-none-eabi\lib\armv7e-m\libm.a(lib_a-k_rem_pio2.o)
 .ARM.attributes
                0x00000954       0x2e C:\Program Files (x86)\GNU Tools ARM Embedded\4.8 2014q1\arm-none-eabi\lib\armv7e-m\libm.a(lib_a-k_sin.o)
 .ARM.attributes
                0x00000982       0x2e C:\Program Files (x86)\GNU Tools ARM Embedded\4.8 2014q1\arm-none-eabi\lib\armv7e-m\libm.a(lib_a-s_floor.o)
 .ARM.attributes
                0x000009b0       0x2e C:\Program Files (x86)\GNU Tools ARM Embedded\4.8 2014q1\arm-none-eabi\lib\armv7e-m\libm.a(lib_a-s_lib_ver.o)
 .ARM.attributes
                0x000009de       0x2e C:\Program Files (x86)\GNU Tools ARM Embedded\4.8 2014q1\arm-none-eabi\lib\armv7e-m\libm.a(lib_a-s_matherr.o)
 .ARM.attributes
                0x00000a0c       0x2e C:\Program Files (x86)\GNU Tools ARM Embedded\4.8 2014q1\arm-none-eabi\lib\armv7e-m\libm.a(lib_a-s_nan.o)
 .ARM.attributes
                0x00000a3a       0x2e C:\Program Files (x86)\GNU Tools ARM Embedded\4.8 2014q1\arm-none-eabi\lib\armv7e-m\libm.a(lib_a-s_scalbn.o)
 .ARM.attributes
                0x00000a68       0x2e C:\Program Files (x86)\GNU Tools ARM Embedded\4.8 2014q1\arm-none-eabi\lib\armv7e-m\libm.a(lib_a-s_copysign.o)
 .ARM.attributes
                0x00000a96       0x1e c:/program files (x86)/gnu tools arm embedded/4.8 2014q1/bin/../lib/gcc/arm-none-eabi/4.8.3/armv7e-m\libgcc.a(_arm_addsubdf3.o)
 .ARM.attributes
                0x00000ab4       0x1e c:/program files (x86)/gnu tools arm embedded/4.8 2014q1/bin/../lib/gcc/arm-none-eabi/4.8.3/armv7e-m\libgcc.a(_arm_muldivdf3.o)
 .ARM.attributes
                0x00000ad2       0x1e c:/program files (x86)/gnu tools arm embedded/4.8 2014q1/bin/../lib/gcc/arm-none-eabi/4.8.3/armv7e-m\libgcc.a(_arm_cmpdf2.o)
 .ARM.attributes
                0x00000af0       0x1e c:/program files (x86)/gnu tools arm embedded/4.8 2014q1/bin/../lib/gcc/arm-none-eabi/4.8.3/armv7e-m\libgcc.a(_arm_fixdfsi.o)
 .ARM.attributes
                0x00000b0e       0x1e c:/program files (x86)/gnu tools arm embedded/4.8 2014q1/bin/../lib/gcc/arm-none-eabi/4.8.3/armv7e-m\libgcc.a(_arm_truncdfsf2.o)
 .ARM.attributes
                0x00000b2c       0x1e c:/program files (x86)/gnu tools arm embedded/4.8 2014q1/bin/../lib/gcc/arm-none-eabi/4.8.3/armv7e-m\libgcc.a(_arm_addsubsf3.o)
 .ARM.attributes
                0x00000b4a       0x1e c:/program files (x86)/gnu tools arm embedded/4.8 2014q1/bin/../lib/gcc/arm-none-eabi/4.8.3/armv7e-m\libgcc.a(_arm_muldivsf3.o)
 .ARM.attributes
                0x00000b68       0x1e c:/program files (x86)/gnu tools arm embedded/4.8 2014q1/bin/../lib/gcc/arm-none-eabi/4.8.3/armv7e-m\libgcc.a(_arm_cmpsf2.o)
 .ARM.attributes
                0x00000b86       0x1e c:/program files (x86)/gnu tools arm embedded/4.8 2014q1/bin/../lib/gcc/arm-none-eabi/4.8.3/armv7e-m\libgcc.a(_arm_fixsfsi.o)
 .ARM.attributes
                0x00000ba4       0x1e c:/program files (x86)/gnu tools arm embedded/4.8 2014q1/bin/../lib/gcc/arm-none-eabi/4.8.3/armv7e-m\libgcc.a(_arm_fixunssfsi.o)
 .ARM.attributes
                0x00000bc2       0x2e C:\Program Files (x86)\GNU Tools ARM Embedded\4.8 2014q1\arm-none-eabi\lib\armv7e-m\libc.a(lib_a-errno.o)
 .ARM.attributes
                0x00000bf0       0x2e C:\Program Files (x86)\GNU Tools ARM Embedded\4.8 2014q1\arm-none-eabi\lib\armv7e-m\libc.a(lib_a-impure.o)
 .ARM.attributes
                0x00000c1e       0x1c C:\Program Files (x86)\GNU Tools ARM Embedded\4.8 2014q1\arm-none-eabi\lib\armv7e-m\libc.a(lib_a-memcpy.o)
 .ARM.attributes
                0x00000c3a       0x2e C:\Program Files (x86)\GNU Tools ARM Embedded\4.8 2014q1\arm-none-eabi\lib\armv7e-m\libc.a(lib_a-sprintf.o)
 .ARM.attributes
                0x00000c68       0x2e C:\Program Files (x86)\GNU Tools ARM Embedded\4.8 2014q1\arm-none-eabi\lib\armv7e-m\libc.a(lib_a-strlen.o)
 .ARM.attributes
                0x00000c96       0x2e C:\Program Files (x86)\GNU Tools ARM Embedded\4.8 2014q1\arm-none-eabi\lib\armv7e-m\libc.a(lib_a-svfprintf.o)
 .ARM.attributes
                0x00000cc4       0x2e C:\Program Files (x86)\GNU Tools ARM Embedded\4.8 2014q1\arm-none-eabi\lib\armv7e-m\libc.a(lib_a-dtoa.o)
 .ARM.attributes
                0x00000cf2       0x2e C:\Program Files (x86)\GNU Tools ARM Embedded\4.8 2014q1\arm-none-eabi\lib\armv7e-m\libc.a(lib_a-locale.o)
 .ARM.attributes
                0x00000d20       0x2e C:\Program Files (x86)\GNU Tools ARM Embedded\4.8 2014q1\arm-none-eabi\lib\armv7e-m\libc.a(lib_a-mallocr.o)
 .ARM.attributes
                0x00000d4e       0x2e C:\Program Files (x86)\GNU Tools ARM Embedded\4.8 2014q1\arm-none-eabi\lib\armv7e-m\libc.a(lib_a-memchr-stub.o)
 .ARM.attributes
                0x00000d7c       0x2e C:\Program Files (x86)\GNU Tools ARM Embedded\4.8 2014q1\arm-none-eabi\lib\armv7e-m\libc.a(lib_a-mlock.o)
 .ARM.attributes
                0x00000daa       0x2e C:\Program Files (x86)\GNU Tools ARM Embedded\4.8 2014q1\arm-none-eabi\lib\armv7e-m\libc.a(lib_a-mprec.o)
 .ARM.attributes
                0x00000dd8       0x2e C:\Program Files (x86)\GNU Tools ARM Embedded\4.8 2014q1\arm-none-eabi\lib\armv7e-m\libc.a(lib_a-sbrkr.o)
 .ARM.attributes
                0x00000e06       0x2e C:\Program Files (x86)\GNU Tools ARM Embedded\4.8 2014q1\arm-none-eabi\lib\armv7e-m\libc.a(lib_a-svfiprintf.o)
 .ARM.attributes
                0x00000e34       0x2e C:\Program Files (x86)\GNU Tools ARM Embedded\4.8 2014q1\arm-none-eabi\lib\armv7e-m\libc.a(lib_a-callocr.o)
 .ARM.attributes
                0x00000e62       0x2e C:\Program Files (x86)\GNU Tools ARM Embedded\4.8 2014q1\arm-none-eabi\lib\armv7e-m\libc.a(lib_a-freer.o)
 .ARM.attributes
                0x00000e90       0x2e C:\Program Files (x86)\GNU Tools ARM Embedded\4.8 2014q1\arm-none-eabi\lib\armv7e-m\libc.a(lib_a-memmove.o)
 .ARM.attributes
                0x00000ebe       0x2e C:\Program Files (x86)\GNU Tools ARM Embedded\4.8 2014q1\arm-none-eabi\lib\armv7e-m\libc.a(lib_a-memset.o)
 .ARM.attributes
                0x00000eec       0x2e C:\Program Files (x86)\GNU Tools ARM Embedded\4.8 2014q1\arm-none-eabi\lib\armv7e-m\libc.a(lib_a-reallocr.o)
 .ARM.attributes
                0x00000f1a       0x2e C:\Program Files (x86)\GNU Tools ARM Embedded\4.8 2014q1\arm-none-eabi\lib\armv7e-m\libc.a(lib_a-reent.o)
 .ARM.attributes
                0x00000f48       0x1e c:/program files (x86)/gnu tools arm embedded/4.8 2014q1/bin/../lib/gcc/arm-none-eabi/4.8.3/armv7e-m\libgcc.a(_aeabi_uldivmod.o)
 .ARM.attributes
                0x00000f66       0x2e c:/program files (x86)/gnu tools arm embedded/4.8 2014q1/bin/../lib/gcc/arm-none-eabi/4.8.3/armv7e-m\libgcc.a(bpabi.o)
 .ARM.attributes
                0x00000f94       0x1e c:/program files (x86)/gnu tools arm embedded/4.8 2014q1/bin/../lib/gcc/arm-none-eabi/4.8.3/armv7e-m\libgcc.a(_dvmd_tls.o)
 .ARM.attributes
                0x00000fb2       0x2e c:/program files (x86)/gnu tools arm embedded/4.8 2014q1/bin/../lib/gcc/arm-none-eabi/4.8.3/armv7e-m\libgcc.a(_divdi3.o)
 .ARM.attributes
                0x00000fe0       0x2e c:/program files (x86)/gnu tools arm embedded/4.8 2014q1/bin/../lib/gcc/arm-none-eabi/4.8.3/armv7e-m\libgcc.a(_udivdi3.o)

.debug_frame    0x00000000     0x6a84
 .debug_frame   0x00000000       0x78 ..\obj\bw_articulated_manipulator.o
 .debug_frame   0x00000078      0x26c ..\obj\bw_dynamixel_ax_12a.o
 .debug_frame   0x000002e4      0x170 ..\obj\bw_usart_comm.o
 .debug_frame   0x00000454      0x25c ..\obj\bw_i2c_lcd.o
 .debug_frame   0x000006b0      0x17c ..\obj\BW_I2C_EEPROM.o
 .debug_frame   0x0000082c      0x20c ..\obj\stm32f4xx_usart.o
 .debug_frame   0x00000a38      0x72c ..\obj\bw_hexapod_cmd.o
 .debug_frame   0x00001164       0x64 ..\obj\bw_rotary_switch.o
 .debug_frame   0x000011c8      0x13c ..\obj\bw_user_interface.o
 .debug_frame   0x00001304       0x38 ..\obj\startup_stm32f4xx.o
 .debug_frame   0x0000133c       0x78 ..\obj\main.o
 .debug_frame   0x000013b4      0x2ec ..\obj\stm32f4xx_rcc.o
 .debug_frame   0x000016a0       0xd8 ..\obj\bw_ping_receiver.o
 .debug_frame   0x00001778       0x44 ..\obj\bw_sound_activation.o
 .debug_frame   0x000017bc      0x13c ..\obj\bw_extinguisher.o
 .debug_frame   0x000018f8      0x2a8 ..\obj\stm32f4xx_adc.o
 .debug_frame   0x00001ba0       0x80 ..\obj\bw_bumper.o
 .debug_frame   0x00001c20     0x1de8 ..\obj\bw2017_algorithm.o
 .debug_frame   0x00003a08       0x9c ..\obj\bw_infrared_proximity.o
 .debug_frame   0x00003aa4      0x2bc ..\obj\bw_pid_controller.o
 .debug_frame   0x00003d60       0x2c ..\obj\bw_utilities.o
 .debug_frame   0x00003d8c      0x110 ..\obj\stm32f4xx_gpio.o
 .debug_frame   0x00003e9c       0x34 ..\obj\system_stm32f4xx.o
 .debug_frame   0x00003ed0       0xa0 ..\obj\syscalls.o
 .debug_frame   0x00003f70       0x80 ..\obj\bw_UV-TRON.o
 .debug_frame   0x00003ff0       0x80 ..\obj\bw_systick_delay.o
 .debug_frame   0x00004070      0xaa8 ..\obj\bw_dynamixel_hexapod_cmd.o
 .debug_frame   0x00004b18      0x228 ..\obj\bw_tpa_servo.o
 .debug_frame   0x00004d40      0x240 ..\obj\stm32f4xx_i2c.o
 .debug_frame   0x00004f80      0x2d4 ..\obj\bw_lcd.o
 .debug_frame   0x00005254       0x68 ..\obj\misc.o
 .debug_frame   0x000052bc      0x400 ..\obj\bw_cmps11.o
 .debug_frame   0x000056bc      0x23c ..\obj\bw_tcs3200_receiver.o
 .debug_frame   0x000058f8      0x650 ..\obj\stm32f4xx_tim.o
 .debug_frame   0x00005f48       0xa4 ..\obj\bw_flame_sensor.o
 .debug_frame   0x00005fec       0x38 C:\Program Files (x86)\GNU Tools ARM Embedded\4.8 2014q1\arm-none-eabi\lib\armv7e-m\libm.a(lib_a-s_atan.o)
 .debug_frame   0x00006024       0x30 C:\Program Files (x86)\GNU Tools ARM Embedded\4.8 2014q1\arm-none-eabi\lib\armv7e-m\libm.a(lib_a-s_cos.o)
 .debug_frame   0x00006054       0x20 C:\Program Files (x86)\GNU Tools ARM Embedded\4.8 2014q1\arm-none-eabi\lib\armv7e-m\libm.a(lib_a-s_fabs.o)
 .debug_frame   0x00006074       0x30 C:\Program Files (x86)\GNU Tools ARM Embedded\4.8 2014q1\arm-none-eabi\lib\armv7e-m\libm.a(lib_a-s_fmax.o)
 .debug_frame   0x000060a4       0x28 C:\Program Files (x86)\GNU Tools ARM Embedded\4.8 2014q1\arm-none-eabi\lib\armv7e-m\libm.a(lib_a-s_fpclassify.o)
 .debug_frame   0x000060cc       0x30 C:\Program Files (x86)\GNU Tools ARM Embedded\4.8 2014q1\arm-none-eabi\lib\armv7e-m\libm.a(lib_a-s_sin.o)
 .debug_frame   0x000060fc       0x34 C:\Program Files (x86)\GNU Tools ARM Embedded\4.8 2014q1\arm-none-eabi\lib\armv7e-m\libm.a(lib_a-w_acos.o)
 .debug_frame   0x00006130       0x38 C:\Program Files (x86)\GNU Tools ARM Embedded\4.8 2014q1\arm-none-eabi\lib\armv7e-m\libm.a(lib_a-e_acos.o)
 .debug_frame   0x00006168       0x38 C:\Program Files (x86)\GNU Tools ARM Embedded\4.8 2014q1\arm-none-eabi\lib\armv7e-m\libm.a(lib_a-e_rem_pio2.o)
 .debug_frame   0x000061a0       0x34 C:\Program Files (x86)\GNU Tools ARM Embedded\4.8 2014q1\arm-none-eabi\lib\armv7e-m\libm.a(lib_a-e_sqrt.o)
 .debug_frame   0x000061d4       0x38 C:\Program Files (x86)\GNU Tools ARM Embedded\4.8 2014q1\arm-none-eabi\lib\armv7e-m\libm.a(lib_a-k_cos.o)
 .debug_frame   0x0000620c       0x3c C:\Program Files (x86)\GNU Tools ARM Embedded\4.8 2014q1\arm-none-eabi\lib\armv7e-m\libm.a(lib_a-k_rem_pio2.o)
 .debug_frame   0x00006248       0x38 C:\Program Files (x86)\GNU Tools ARM Embedded\4.8 2014q1\arm-none-eabi\lib\armv7e-m\libm.a(lib_a-k_sin.o)
 .debug_frame   0x00006280       0x38 C:\Program Files (x86)\GNU Tools ARM Embedded\4.8 2014q1\arm-none-eabi\lib\armv7e-m\libm.a(lib_a-s_floor.o)
 .debug_frame   0x000062b8       0x20 C:\Program Files (x86)\GNU Tools ARM Embedded\4.8 2014q1\arm-none-eabi\lib\armv7e-m\libm.a(lib_a-s_matherr.o)
 .debug_frame   0x000062d8       0x20 C:\Program Files (x86)\GNU Tools ARM Embedded\4.8 2014q1\arm-none-eabi\lib\armv7e-m\libm.a(lib_a-s_nan.o)
 .debug_frame   0x000062f8       0x30 C:\Program Files (x86)\GNU Tools ARM Embedded\4.8 2014q1\arm-none-eabi\lib\armv7e-m\libm.a(lib_a-s_scalbn.o)
 .debug_frame   0x00006328       0x28 C:\Program Files (x86)\GNU Tools ARM Embedded\4.8 2014q1\arm-none-eabi\lib\armv7e-m\libm.a(lib_a-s_copysign.o)
 .debug_frame   0x00006350       0x20 C:\Program Files (x86)\GNU Tools ARM Embedded\4.8 2014q1\arm-none-eabi\lib\armv7e-m\libc.a(lib_a-errno.o)
 .debug_frame   0x00006370       0x64 C:\Program Files (x86)\GNU Tools ARM Embedded\4.8 2014q1\arm-none-eabi\lib\armv7e-m\libc.a(lib_a-sprintf.o)
 .debug_frame   0x000063d4       0x20 C:\Program Files (x86)\GNU Tools ARM Embedded\4.8 2014q1\arm-none-eabi\lib\armv7e-m\libc.a(lib_a-strlen.o)
 .debug_frame   0x000063f4       0x3c C:\Program Files (x86)\GNU Tools ARM Embedded\4.8 2014q1\arm-none-eabi\lib\armv7e-m\libc.a(lib_a-svfprintf.o)
 .debug_frame   0x00006430       0x64 C:\Program Files (x86)\GNU Tools ARM Embedded\4.8 2014q1\arm-none-eabi\lib\armv7e-m\libc.a(lib_a-dtoa.o)
 .debug_frame   0x00006494       0x98 C:\Program Files (x86)\GNU Tools ARM Embedded\4.8 2014q1\arm-none-eabi\lib\armv7e-m\libc.a(lib_a-locale.o)
 .debug_frame   0x0000652c       0x38 C:\Program Files (x86)\GNU Tools ARM Embedded\4.8 2014q1\arm-none-eabi\lib\armv7e-m\libc.a(lib_a-mallocr.o)
 .debug_frame   0x00006564       0x2c C:\Program Files (x86)\GNU Tools ARM Embedded\4.8 2014q1\arm-none-eabi\lib\armv7e-m\libc.a(lib_a-memchr-stub.o)
 .debug_frame   0x00006590       0x30 C:\Program Files (x86)\GNU Tools ARM Embedded\4.8 2014q1\arm-none-eabi\lib\armv7e-m\libc.a(lib_a-mlock.o)
 .debug_frame   0x000065c0      0x22c C:\Program Files (x86)\GNU Tools ARM Embedded\4.8 2014q1\arm-none-eabi\lib\armv7e-m\libc.a(lib_a-mprec.o)
 .debug_frame   0x000067ec       0x2c C:\Program Files (x86)\GNU Tools ARM Embedded\4.8 2014q1\arm-none-eabi\lib\armv7e-m\libc.a(lib_a-sbrkr.o)
 .debug_frame   0x00006818       0x64 C:\Program Files (x86)\GNU Tools ARM Embedded\4.8 2014q1\arm-none-eabi\lib\armv7e-m\libc.a(lib_a-svfiprintf.o)
 .debug_frame   0x0000687c       0x28 C:\Program Files (x86)\GNU Tools ARM Embedded\4.8 2014q1\arm-none-eabi\lib\armv7e-m\libc.a(lib_a-callocr.o)
 .debug_frame   0x000068a4       0x50 C:\Program Files (x86)\GNU Tools ARM Embedded\4.8 2014q1\arm-none-eabi\lib\armv7e-m\libc.a(lib_a-freer.o)
 .debug_frame   0x000068f4       0x2c C:\Program Files (x86)\GNU Tools ARM Embedded\4.8 2014q1\arm-none-eabi\lib\armv7e-m\libc.a(lib_a-memmove.o)
 .debug_frame   0x00006920       0x2c C:\Program Files (x86)\GNU Tools ARM Embedded\4.8 2014q1\arm-none-eabi\lib\armv7e-m\libc.a(lib_a-memset.o)
 .debug_frame   0x0000694c       0x38 C:\Program Files (x86)\GNU Tools ARM Embedded\4.8 2014q1\arm-none-eabi\lib\armv7e-m\libc.a(lib_a-reallocr.o)
 .debug_frame   0x00006984       0x48 C:\Program Files (x86)\GNU Tools ARM Embedded\4.8 2014q1\arm-none-eabi\lib\armv7e-m\libc.a(lib_a-reent.o)
 .debug_frame   0x000069cc       0x50 c:/program files (x86)/gnu tools arm embedded/4.8 2014q1/bin/../lib/gcc/arm-none-eabi/4.8.3/armv7e-m\libgcc.a(bpabi.o)
 .debug_frame   0x00006a1c       0x34 c:/program files (x86)/gnu tools arm embedded/4.8 2014q1/bin/../lib/gcc/arm-none-eabi/4.8.3/armv7e-m\libgcc.a(_divdi3.o)
 .debug_frame   0x00006a50       0x34 c:/program files (x86)/gnu tools arm embedded/4.8 2014q1/bin/../lib/gcc/arm-none-eabi/4.8.3/armv7e-m\libgcc.a(_udivdi3.o)
